	.file	"main.cpp"
	.text
	.section	.rodata
	.type	_ZStL19piecewise_construct, @object
	.size	_ZStL19piecewise_construct, 1
_ZStL19piecewise_construct:
	.zero	1
	.section	.text._ZNKSt9type_infoeqERKS_,"axG",@progbits,_ZNKSt9type_infoeqERKS_,comdat
	.align 2
	.weak	_ZNKSt9type_infoeqERKS_
	.type	_ZNKSt9type_infoeqERKS_, @function
_ZNKSt9type_infoeqERKS_:
.LFB322:
	.cfi_startproc
	endbr64
	pushq	%rbp
	.cfi_def_cfa_offset 16
	.cfi_offset 6, -16
	movq	%rsp, %rbp
	.cfi_def_cfa_register 6
	subq	$16, %rsp
	movq	%rdi, -8(%rbp)
	movq	%rsi, -16(%rbp)
	movq	-8(%rbp), %rax
	movq	8(%rax), %rdx
	movq	-16(%rbp), %rax
	movq	8(%rax), %rax
	cmpq	%rax, %rdx
	je	.L2
	movq	-8(%rbp), %rax
	movq	8(%rax), %rax
	movzbl	(%rax), %eax
	cmpb	$42, %al
	je	.L3
	movq	-16(%rbp), %rax
	movq	8(%rax), %rdx
	movq	-8(%rbp), %rax
	movq	8(%rax), %rax
	movq	%rdx, %rsi
	movq	%rax, %rdi
	call	strcmp@PLT
	testl	%eax, %eax
	jne	.L3
.L2:
	movl	$1, %eax
	jmp	.L4
.L3:
	movl	$0, %eax
.L4:
	leave
	.cfi_def_cfa 7, 8
	ret
	.cfi_endproc
.LFE322:
	.size	_ZNKSt9type_infoeqERKS_, .-_ZNKSt9type_infoeqERKS_
	.section	.text._ZnwmPv,"axG",@progbits,_ZnwmPv,comdat
	.weak	_ZnwmPv
	.type	_ZnwmPv, @function
_ZnwmPv:
.LFB364:
	.cfi_startproc
	endbr64
	pushq	%rbp
	.cfi_def_cfa_offset 16
	.cfi_offset 6, -16
	movq	%rsp, %rbp
	.cfi_def_cfa_register 6
	movq	%rdi, -8(%rbp)
	movq	%rsi, -16(%rbp)
	movq	-16(%rbp), %rax
	popq	%rbp
	.cfi_def_cfa 7, 8
	ret
	.cfi_endproc
.LFE364:
	.size	_ZnwmPv, .-_ZnwmPv
	.section	.text._ZdlPvS_,"axG",@progbits,_ZdlPvS_,comdat
	.weak	_ZdlPvS_
	.type	_ZdlPvS_, @function
_ZdlPvS_:
.LFB366:
	.cfi_startproc
	endbr64
	pushq	%rbp
	.cfi_def_cfa_offset 16
	.cfi_offset 6, -16
	movq	%rsp, %rbp
	.cfi_def_cfa_register 6
	movq	%rdi, -8(%rbp)
	movq	%rsi, -16(%rbp)
	nop
	popq	%rbp
	.cfi_def_cfa 7, 8
	ret
	.cfi_endproc
.LFE366:
	.size	_ZdlPvS_, .-_ZdlPvS_
	.section	.data.rel.ro,"aw"
	.align 8
	.type	_ZZL18__gthread_active_pvE20__gthread_active_ptr, @object
	.size	_ZZL18__gthread_active_pvE20__gthread_active_ptr, 8
_ZZL18__gthread_active_pvE20__gthread_active_ptr:
	.quad	_ZL28__gthrw___pthread_key_createPjPFvPvE
	.section	.text._ZL18__gthread_active_pv,"axG",@progbits,_ZNSt16_Sp_counted_baseILN9__gnu_cxx12_Lock_policyE2EE10_M_releaseEv,comdat
	.type	_ZL18__gthread_active_pv, @function
_ZL18__gthread_active_pv:
.LFB540:
	.cfi_startproc
	pushq	%rbp
	.cfi_def_cfa_offset 16
	.cfi_offset 6, -16
	movq	%rsp, %rbp
	.cfi_def_cfa_register 6
	movl	$1, %edx
	movq	_ZL28__gthrw___pthread_key_createPjPFvPvE@GOTPCREL(%rip), %rax
	testq	%rax, %rax
	jne	.L10
	movl	$0, %edx
.L10:
	movzbl	%dl, %eax
	popq	%rbp
	.cfi_def_cfa 7, 8
	ret
	.cfi_endproc
.LFE540:
	.size	_ZL18__gthread_active_pv, .-_ZL18__gthread_active_pv
	.section	.text._ZN9__gnu_cxxL18__exchange_and_addEPVii,"axG",@progbits,_ZNSt16_Sp_counted_baseILN9__gnu_cxx12_Lock_policyE2EE10_M_releaseEv,comdat
	.type	_ZN9__gnu_cxxL18__exchange_and_addEPVii, @function
_ZN9__gnu_cxxL18__exchange_and_addEPVii:
.LFB569:
	.cfi_startproc
	pushq	%rbp
	.cfi_def_cfa_offset 16
	.cfi_offset 6, -16
	movq	%rsp, %rbp
	.cfi_def_cfa_register 6
	movq	%rdi, -8(%rbp)
	movl	%esi, -12(%rbp)
	movl	-12(%rbp), %edx
	movq	-8(%rbp), %rax
	lock xaddl	%edx, (%rax)
	movl	%edx, %eax
	popq	%rbp
	.cfi_def_cfa 7, 8
	ret
	.cfi_endproc
.LFE569:
	.size	_ZN9__gnu_cxxL18__exchange_and_addEPVii, .-_ZN9__gnu_cxxL18__exchange_and_addEPVii
	.section	.text._ZN9__gnu_cxxL25__exchange_and_add_singleEPii,"axG",@progbits,_ZNSt16_Sp_counted_baseILN9__gnu_cxx12_Lock_policyE2EE10_M_releaseEv,comdat
	.type	_ZN9__gnu_cxxL25__exchange_and_add_singleEPii, @function
_ZN9__gnu_cxxL25__exchange_and_add_singleEPii:
.LFB571:
	.cfi_startproc
	pushq	%rbp
	.cfi_def_cfa_offset 16
	.cfi_offset 6, -16
	movq	%rsp, %rbp
	.cfi_def_cfa_register 6
	movq	%rdi, -24(%rbp)
	movl	%esi, -28(%rbp)
	movq	-24(%rbp), %rax
	movl	(%rax), %eax
	movl	%eax, -4(%rbp)
	movq	-24(%rbp), %rax
	movl	(%rax), %edx
	movl	-28(%rbp), %eax
	addl	%eax, %edx
	movq	-24(%rbp), %rax
	movl	%edx, (%rax)
	movl	-4(%rbp), %eax
	popq	%rbp
	.cfi_def_cfa 7, 8
	ret
	.cfi_endproc
.LFE571:
	.size	_ZN9__gnu_cxxL25__exchange_and_add_singleEPii, .-_ZN9__gnu_cxxL25__exchange_and_add_singleEPii
	.section	.text._ZN9__gnu_cxxL27__exchange_and_add_dispatchEPii,"axG",@progbits,_ZNSt16_Sp_counted_baseILN9__gnu_cxx12_Lock_policyE2EE10_M_releaseEv,comdat
	.type	_ZN9__gnu_cxxL27__exchange_and_add_dispatchEPii, @function
_ZN9__gnu_cxxL27__exchange_and_add_dispatchEPii:
.LFB573:
	.cfi_startproc
	pushq	%rbp
	.cfi_def_cfa_offset 16
	.cfi_offset 6, -16
	movq	%rsp, %rbp
	.cfi_def_cfa_register 6
	subq	$16, %rsp
	movq	%rdi, -8(%rbp)
	movl	%esi, -12(%rbp)
	call	_ZL18__gthread_active_pv
	testl	%eax, %eax
	setne	%al
	testb	%al, %al
	je	.L17
	movl	-12(%rbp), %edx
	movq	-8(%rbp), %rax
	movl	%edx, %esi
	movq	%rax, %rdi
	call	_ZN9__gnu_cxxL18__exchange_and_addEPVii
	jmp	.L18
.L17:
	movl	-12(%rbp), %edx
	movq	-8(%rbp), %rax
	movl	%edx, %esi
	movq	%rax, %rdi
	call	_ZN9__gnu_cxxL25__exchange_and_add_singleEPii
	nop
.L18:
	leave
	.cfi_def_cfa 7, 8
	ret
	.cfi_endproc
.LFE573:
	.size	_ZN9__gnu_cxxL27__exchange_and_add_dispatchEPii, .-_ZN9__gnu_cxxL27__exchange_and_add_dispatchEPii
	.section	.rodata
	.align 4
	.type	_ZN9__gnu_cxxL21__default_lock_policyE, @object
	.size	_ZN9__gnu_cxxL21__default_lock_policyE, 4
_ZN9__gnu_cxxL21__default_lock_policyE:
	.long	2
	.type	_ZStL13allocator_arg, @object
	.size	_ZStL13allocator_arg, 1
_ZStL13allocator_arg:
	.zero	1
	.type	_ZStL6ignore, @object
	.size	_ZStL6ignore, 1
_ZStL6ignore:
	.zero	1
	.weak	_ZZNSt19_Sp_make_shared_tag5_S_tiEvE5__tag
	.section	.rodata._ZZNSt19_Sp_make_shared_tag5_S_tiEvE5__tag,"aG",@progbits,_ZZNSt19_Sp_make_shared_tag5_S_tiEvE5__tag,comdat
	.align 8
	.type	_ZZNSt19_Sp_make_shared_tag5_S_tiEvE5__tag, @gnu_unique_object
	.size	_ZZNSt19_Sp_make_shared_tag5_S_tiEvE5__tag, 16
_ZZNSt19_Sp_make_shared_tag5_S_tiEvE5__tag:
	.zero	16
	.section	.text._ZNSt19_Sp_make_shared_tag5_S_tiEv,"axG",@progbits,_ZNSt19_Sp_make_shared_tag5_S_tiEv,comdat
	.weak	_ZNSt19_Sp_make_shared_tag5_S_tiEv
	.type	_ZNSt19_Sp_make_shared_tag5_S_tiEv, @function
_ZNSt19_Sp_make_shared_tag5_S_tiEv:
.LFB1548:
	.cfi_startproc
	endbr64
	pushq	%rbp
	.cfi_def_cfa_offset 16
	.cfi_offset 6, -16
	movq	%rsp, %rbp
	.cfi_def_cfa_register 6
	leaq	_ZZNSt19_Sp_make_shared_tag5_S_tiEvE5__tag(%rip), %rax
	popq	%rbp
	.cfi_def_cfa 7, 8
	ret
	.cfi_endproc
.LFE1548:
	.size	_ZNSt19_Sp_make_shared_tag5_S_tiEv, .-_ZNSt19_Sp_make_shared_tag5_S_tiEv
	.section	.text._ZNKSt6chrono8durationIlSt5ratioILl1ELl1000000000EEE5countEv,"axG",@progbits,_ZNKSt6chrono8durationIlSt5ratioILl1ELl1000000000EEE5countEv,comdat
	.align 2
	.weak	_ZNKSt6chrono8durationIlSt5ratioILl1ELl1000000000EEE5countEv
	.type	_ZNKSt6chrono8durationIlSt5ratioILl1ELl1000000000EEE5countEv, @function
_ZNKSt6chrono8durationIlSt5ratioILl1ELl1000000000EEE5countEv:
.LFB2130:
	.cfi_startproc
	endbr64
	pushq	%rbp
	.cfi_def_cfa_offset 16
	.cfi_offset 6, -16
	movq	%rsp, %rbp
	.cfi_def_cfa_register 6
	movq	%rdi, -8(%rbp)
	movq	-8(%rbp), %rax
	movq	(%rax), %rax
	popq	%rbp
	.cfi_def_cfa 7, 8
	ret
	.cfi_endproc
.LFE2130:
	.size	_ZNKSt6chrono8durationIlSt5ratioILl1ELl1000000000EEE5countEv, .-_ZNKSt6chrono8durationIlSt5ratioILl1ELl1000000000EEE5countEv
	.section	.text._ZNSt6chrono8durationIlSt5ratioILl1ELl1000000000EEEC1IlvEERKT_,"axG",@progbits,_ZNSt6chrono8durationIlSt5ratioILl1ELl1000000000EEEC1IlvEERKT_,comdat
	.align 2
	.weak	_ZNSt6chrono8durationIlSt5ratioILl1ELl1000000000EEEC1IlvEERKT_
	.type	_ZNSt6chrono8durationIlSt5ratioILl1ELl1000000000EEEC1IlvEERKT_, @function
_ZNSt6chrono8durationIlSt5ratioILl1ELl1000000000EEEC1IlvEERKT_:
.LFB2135:
	.cfi_startproc
	endbr64
	pushq	%rbp
	.cfi_def_cfa_offset 16
	.cfi_offset 6, -16
	movq	%rsp, %rbp
	.cfi_def_cfa_register 6
	movq	%rdi, -8(%rbp)
	movq	%rsi, -16(%rbp)
	movq	-16(%rbp), %rax
	movq	(%rax), %rdx
	movq	-8(%rbp), %rax
	movq	%rdx, (%rax)
	nop
	popq	%rbp
	.cfi_def_cfa 7, 8
	ret
	.cfi_endproc
.LFE2135:
	.size	_ZNSt6chrono8durationIlSt5ratioILl1ELl1000000000EEEC1IlvEERKT_, .-_ZNSt6chrono8durationIlSt5ratioILl1ELl1000000000EEEC1IlvEERKT_
	.section	.text._ZNSt6chrono15duration_valuesIlE4zeroEv,"axG",@progbits,_ZNSt6chrono15duration_valuesIlE4zeroEv,comdat
	.weak	_ZNSt6chrono15duration_valuesIlE4zeroEv
	.type	_ZNSt6chrono15duration_valuesIlE4zeroEv, @function
_ZNSt6chrono15duration_valuesIlE4zeroEv:
.LFB2137:
	.cfi_startproc
	endbr64
	pushq	%rbp
	.cfi_def_cfa_offset 16
	.cfi_offset 6, -16
	movq	%rsp, %rbp
	.cfi_def_cfa_register 6
	movl	$0, %eax
	popq	%rbp
	.cfi_def_cfa 7, 8
	ret
	.cfi_endproc
.LFE2137:
	.size	_ZNSt6chrono15duration_valuesIlE4zeroEv, .-_ZNSt6chrono15duration_valuesIlE4zeroEv
	.local	_ZStL8__ioinit
	.comm	_ZStL8__ioinit,1,1
	.section	.text._ZN5boost10error_infoINS_15throw_function_EPKcEC2ES3_,"axG",@progbits,_ZN5boost10error_infoINS_15throw_function_EPKcEC5ES3_,comdat
	.align 2
	.weak	_ZN5boost10error_infoINS_15throw_function_EPKcEC2ES3_
	.type	_ZN5boost10error_infoINS_15throw_function_EPKcEC2ES3_, @function
_ZN5boost10error_infoINS_15throw_function_EPKcEC2ES3_:
.LFB3758:
	.cfi_startproc
	endbr64
	pushq	%rbp
	.cfi_def_cfa_offset 16
	.cfi_offset 6, -16
	movq	%rsp, %rbp
	.cfi_def_cfa_register 6
	movq	%rdi, -8(%rbp)
	movq	%rsi, -16(%rbp)
	movq	-8(%rbp), %rax
	movq	-16(%rbp), %rdx
	movq	%rdx, (%rax)
	nop
	popq	%rbp
	.cfi_def_cfa 7, 8
	ret
	.cfi_endproc
.LFE3758:
	.size	_ZN5boost10error_infoINS_15throw_function_EPKcEC2ES3_, .-_ZN5boost10error_infoINS_15throw_function_EPKcEC2ES3_
	.weak	_ZN5boost10error_infoINS_15throw_function_EPKcEC1ES3_
	.set	_ZN5boost10error_infoINS_15throw_function_EPKcEC1ES3_,_ZN5boost10error_infoINS_15throw_function_EPKcEC2ES3_
	.section	.text._ZN5boost10error_infoINS_11throw_file_EPKcEC2ES3_,"axG",@progbits,_ZN5boost10error_infoINS_11throw_file_EPKcEC5ES3_,comdat
	.align 2
	.weak	_ZN5boost10error_infoINS_11throw_file_EPKcEC2ES3_
	.type	_ZN5boost10error_infoINS_11throw_file_EPKcEC2ES3_, @function
_ZN5boost10error_infoINS_11throw_file_EPKcEC2ES3_:
.LFB3761:
	.cfi_startproc
	endbr64
	pushq	%rbp
	.cfi_def_cfa_offset 16
	.cfi_offset 6, -16
	movq	%rsp, %rbp
	.cfi_def_cfa_register 6
	movq	%rdi, -8(%rbp)
	movq	%rsi, -16(%rbp)
	movq	-8(%rbp), %rax
	movq	-16(%rbp), %rdx
	movq	%rdx, (%rax)
	nop
	popq	%rbp
	.cfi_def_cfa 7, 8
	ret
	.cfi_endproc
.LFE3761:
	.size	_ZN5boost10error_infoINS_11throw_file_EPKcEC2ES3_, .-_ZN5boost10error_infoINS_11throw_file_EPKcEC2ES3_
	.weak	_ZN5boost10error_infoINS_11throw_file_EPKcEC1ES3_
	.set	_ZN5boost10error_infoINS_11throw_file_EPKcEC1ES3_,_ZN5boost10error_infoINS_11throw_file_EPKcEC2ES3_
	.section	.text._ZN5boost10error_infoINS_11throw_line_EiEC2Ei,"axG",@progbits,_ZN5boost10error_infoINS_11throw_line_EiEC5Ei,comdat
	.align 2
	.weak	_ZN5boost10error_infoINS_11throw_line_EiEC2Ei
	.type	_ZN5boost10error_infoINS_11throw_line_EiEC2Ei, @function
_ZN5boost10error_infoINS_11throw_line_EiEC2Ei:
.LFB3764:
	.cfi_startproc
	endbr64
	pushq	%rbp
	.cfi_def_cfa_offset 16
	.cfi_offset 6, -16
	movq	%rsp, %rbp
	.cfi_def_cfa_register 6
	movq	%rdi, -8(%rbp)
	movl	%esi, -12(%rbp)
	movq	-8(%rbp), %rax
	movl	-12(%rbp), %edx
	movl	%edx, (%rax)
	nop
	popq	%rbp
	.cfi_def_cfa 7, 8
	ret
	.cfi_endproc
.LFE3764:
	.size	_ZN5boost10error_infoINS_11throw_line_EiEC2Ei, .-_ZN5boost10error_infoINS_11throw_line_EiEC2Ei
	.weak	_ZN5boost10error_infoINS_11throw_line_EiEC1Ei
	.set	_ZN5boost10error_infoINS_11throw_line_EiEC1Ei,_ZN5boost10error_infoINS_11throw_line_EiEC2Ei
	.section	.text._ZN5boost9exceptionC2Ev,"axG",@progbits,_ZN5boost9exceptionC5Ev,comdat
	.align 2
	.weak	_ZN5boost9exceptionC2Ev
	.type	_ZN5boost9exceptionC2Ev, @function
_ZN5boost9exceptionC2Ev:
.LFB3770:
	.cfi_startproc
	endbr64
	pushq	%rbp
	.cfi_def_cfa_offset 16
	.cfi_offset 6, -16
	movq	%rsp, %rbp
	.cfi_def_cfa_register 6
	subq	$16, %rsp
	movq	%rdi, -8(%rbp)
	leaq	16+_ZTVN5boost9exceptionE(%rip), %rdx
	movq	-8(%rbp), %rax
	movq	%rdx, (%rax)
	movq	-8(%rbp), %rax
	addq	$8, %rax
	movq	%rax, %rdi
	call	_ZN5boost16exception_detail12refcount_ptrINS0_20error_info_containerEEC1Ev
	movq	-8(%rbp), %rax
	movq	$0, 16(%rax)
	movq	-8(%rbp), %rax
	movq	$0, 24(%rax)
	movq	-8(%rbp), %rax
	movl	$-1, 32(%rax)
	nop
	leave
	.cfi_def_cfa 7, 8
	ret
	.cfi_endproc
.LFE3770:
	.size	_ZN5boost9exceptionC2Ev, .-_ZN5boost9exceptionC2Ev
	.weak	_ZN5boost9exceptionC1Ev
	.set	_ZN5boost9exceptionC1Ev,_ZN5boost9exceptionC2Ev
	.section	.text._ZN5boost9exceptionD2Ev,"axG",@progbits,_ZN5boost9exceptionD5Ev,comdat
	.align 2
	.weak	_ZN5boost9exceptionD2Ev
	.type	_ZN5boost9exceptionD2Ev, @function
_ZN5boost9exceptionD2Ev:
.LFB3773:
	.cfi_startproc
	endbr64
	pushq	%rbp
	.cfi_def_cfa_offset 16
	.cfi_offset 6, -16
	movq	%rsp, %rbp
	.cfi_def_cfa_register 6
	subq	$16, %rsp
	movq	%rdi, -8(%rbp)
	leaq	16+_ZTVN5boost9exceptionE(%rip), %rdx
	movq	-8(%rbp), %rax
	movq	%rdx, (%rax)
	movq	-8(%rbp), %rax
	addq	$8, %rax
	movq	%rax, %rdi
	call	_ZN5boost16exception_detail12refcount_ptrINS0_20error_info_containerEED1Ev
	nop
	leave
	.cfi_def_cfa 7, 8
	ret
	.cfi_endproc
.LFE3773:
	.size	_ZN5boost9exceptionD2Ev, .-_ZN5boost9exceptionD2Ev
	.weak	_ZN5boost9exceptionD1Ev
	.set	_ZN5boost9exceptionD1Ev,_ZN5boost9exceptionD2Ev
	.section	.text._ZN5boost9exceptionD0Ev,"axG",@progbits,_ZN5boost9exceptionD5Ev,comdat
	.align 2
	.weak	_ZN5boost9exceptionD0Ev
	.type	_ZN5boost9exceptionD0Ev, @function
_ZN5boost9exceptionD0Ev:
.LFB3775:
	.cfi_startproc
	endbr64
	pushq	%rbp
	.cfi_def_cfa_offset 16
	.cfi_offset 6, -16
	movq	%rsp, %rbp
	.cfi_def_cfa_register 6
	subq	$16, %rsp
	movq	%rdi, -8(%rbp)
	movq	-8(%rbp), %rax
	movq	%rax, %rdi
	call	_ZN5boost9exceptionD1Ev
	movq	-8(%rbp), %rax
	movl	$40, %esi
	movq	%rax, %rdi
	call	_ZdlPvm@PLT
	leave
	.cfi_def_cfa 7, 8
	ret
	.cfi_endproc
.LFE3775:
	.size	_ZN5boost9exceptionD0Ev, .-_ZN5boost9exceptionD0Ev
	.section	.text._ZN5boost16exception_detail10clone_baseD2Ev,"axG",@progbits,_ZN5boost16exception_detail10clone_baseD5Ev,comdat
	.align 2
	.weak	_ZN5boost16exception_detail10clone_baseD2Ev
	.type	_ZN5boost16exception_detail10clone_baseD2Ev, @function
_ZN5boost16exception_detail10clone_baseD2Ev:
.LFB3783:
	.cfi_startproc
	endbr64
	pushq	%rbp
	.cfi_def_cfa_offset 16
	.cfi_offset 6, -16
	movq	%rsp, %rbp
	.cfi_def_cfa_register 6
	movq	%rdi, -8(%rbp)
	leaq	16+_ZTVN5boost16exception_detail10clone_baseE(%rip), %rdx
	movq	-8(%rbp), %rax
	movq	%rdx, (%rax)
	nop
	popq	%rbp
	.cfi_def_cfa 7, 8
	ret
	.cfi_endproc
.LFE3783:
	.size	_ZN5boost16exception_detail10clone_baseD2Ev, .-_ZN5boost16exception_detail10clone_baseD2Ev
	.weak	_ZN5boost16exception_detail10clone_baseD1Ev
	.set	_ZN5boost16exception_detail10clone_baseD1Ev,_ZN5boost16exception_detail10clone_baseD2Ev
	.section	.text._ZN5boost16exception_detail10clone_baseD0Ev,"axG",@progbits,_ZN5boost16exception_detail10clone_baseD5Ev,comdat
	.align 2
	.weak	_ZN5boost16exception_detail10clone_baseD0Ev
	.type	_ZN5boost16exception_detail10clone_baseD0Ev, @function
_ZN5boost16exception_detail10clone_baseD0Ev:
.LFB3785:
	.cfi_startproc
	endbr64
	pushq	%rbp
	.cfi_def_cfa_offset 16
	.cfi_offset 6, -16
	movq	%rsp, %rbp
	.cfi_def_cfa_register 6
	subq	$16, %rsp
	movq	%rdi, -8(%rbp)
	movq	-8(%rbp), %rax
	movq	%rax, %rdi
	call	_ZN5boost16exception_detail10clone_baseD1Ev
	movq	-8(%rbp), %rax
	movl	$8, %esi
	movq	%rax, %rdi
	call	_ZdlPvm@PLT
	leave
	.cfi_def_cfa 7, 8
	ret
	.cfi_endproc
.LFE3785:
	.size	_ZN5boost16exception_detail10clone_baseD0Ev, .-_ZN5boost16exception_detail10clone_baseD0Ev
	.section	.text._ZN5boost16exception_detail20copy_boost_exceptionEPNS_9exceptionEPKS1_,"axG",@progbits,_ZN5boost16exception_detail20copy_boost_exceptionEPNS_9exceptionEPKS1_,comdat
	.weak	_ZN5boost16exception_detail20copy_boost_exceptionEPNS_9exceptionEPKS1_
	.type	_ZN5boost16exception_detail20copy_boost_exceptionEPNS_9exceptionEPKS1_, @function
_ZN5boost16exception_detail20copy_boost_exceptionEPNS_9exceptionEPKS1_:
.LFB3786:
	.cfi_startproc
	.cfi_personality 0x9b,DW.ref.__gxx_personality_v0
	.cfi_lsda 0x1b,.LLSDA3786
	endbr64
	pushq	%rbp
	.cfi_def_cfa_offset 16
	.cfi_offset 6, -16
	movq	%rsp, %rbp
	.cfi_def_cfa_register 6
	pushq	%rbx
	subq	$56, %rsp
	.cfi_offset 3, -24
	movq	%rdi, -56(%rbp)
	movq	%rsi, -64(%rbp)
	movq	%fs:40, %rax
	movq	%rax, -24(%rbp)
	xorl	%eax, %eax
	leaq	-48(%rbp), %rax
	movq	%rax, %rdi
	call	_ZN5boost16exception_detail12refcount_ptrINS0_20error_info_containerEEC1Ev
	movq	-64(%rbp), %rax
	addq	$8, %rax
	movq	%rax, %rdi
	call	_ZNK5boost16exception_detail12refcount_ptrINS0_20error_info_containerEE3getEv
	movq	%rax, -32(%rbp)
	cmpq	$0, -32(%rbp)
	je	.L35
	movq	-32(%rbp), %rax
	movq	(%rax), %rax
	addq	$40, %rax
	movq	(%rax), %rcx
	leaq	-40(%rbp), %rax
	movq	-32(%rbp), %rdx
	movq	%rdx, %rsi
	movq	%rax, %rdi
.LEHB0:
	call	*%rcx
.LEHE0:
	leaq	-40(%rbp), %rdx
	leaq	-48(%rbp), %rax
	movq	%rdx, %rsi
	movq	%rax, %rdi
.LEHB1:
	call	_ZN5boost16exception_detail12refcount_ptrINS0_20error_info_containerEEaSERKS3_
.LEHE1:
	leaq	-40(%rbp), %rax
	movq	%rax, %rdi
	call	_ZN5boost16exception_detail12refcount_ptrINS0_20error_info_containerEED1Ev
.L35:
	movq	-64(%rbp), %rax
	movq	24(%rax), %rdx
	movq	-56(%rbp), %rax
	movq	%rdx, 24(%rax)
	movq	-64(%rbp), %rax
	movl	32(%rax), %edx
	movq	-56(%rbp), %rax
	movl	%edx, 32(%rax)
	movq	-64(%rbp), %rax
	movq	16(%rax), %rdx
	movq	-56(%rbp), %rax
	movq	%rdx, 16(%rax)
	movq	-56(%rbp), %rax
	leaq	8(%rax), %rdx
	leaq	-48(%rbp), %rax
	movq	%rax, %rsi
	movq	%rdx, %rdi
.LEHB2:
	call	_ZN5boost16exception_detail12refcount_ptrINS0_20error_info_containerEEaSERKS3_
.LEHE2:
	leaq	-48(%rbp), %rax
	movq	%rax, %rdi
	call	_ZN5boost16exception_detail12refcount_ptrINS0_20error_info_containerEED1Ev
	nop
	movq	-24(%rbp), %rax
	xorq	%fs:40, %rax
	je	.L38
	jmp	.L41
.L40:
	endbr64
	movq	%rax, %rbx
	leaq	-40(%rbp), %rax
	movq	%rax, %rdi
	call	_ZN5boost16exception_detail12refcount_ptrINS0_20error_info_containerEED1Ev
	jmp	.L37
.L39:
	endbr64
	movq	%rax, %rbx
.L37:
	leaq	-48(%rbp), %rax
	movq	%rax, %rdi
	call	_ZN5boost16exception_detail12refcount_ptrINS0_20error_info_containerEED1Ev
	movq	%rbx, %rax
	movq	%rax, %rdi
.LEHB3:
	call	_Unwind_Resume@PLT
.LEHE3:
.L41:
	call	__stack_chk_fail@PLT
.L38:
	addq	$56, %rsp
	popq	%rbx
	popq	%rbp
	.cfi_def_cfa 7, 8
	ret
	.cfi_endproc
.LFE3786:
	.globl	__gxx_personality_v0
	.section	.gcc_except_table._ZN5boost16exception_detail20copy_boost_exceptionEPNS_9exceptionEPKS1_,"aG",@progbits,_ZN5boost16exception_detail20copy_boost_exceptionEPNS_9exceptionEPKS1_,comdat
.LLSDA3786:
	.byte	0xff
	.byte	0xff
	.byte	0x1
	.uleb128 .LLSDACSE3786-.LLSDACSB3786
.LLSDACSB3786:
	.uleb128 .LEHB0-.LFB3786
	.uleb128 .LEHE0-.LEHB0
	.uleb128 .L39-.LFB3786
	.uleb128 0
	.uleb128 .LEHB1-.LFB3786
	.uleb128 .LEHE1-.LEHB1
	.uleb128 .L40-.LFB3786
	.uleb128 0
	.uleb128 .LEHB2-.LFB3786
	.uleb128 .LEHE2-.LEHB2
	.uleb128 .L39-.LFB3786
	.uleb128 0
	.uleb128 .LEHB3-.LFB3786
	.uleb128 .LEHE3-.LEHB3
	.uleb128 0
	.uleb128 0
.LLSDACSE3786:
	.section	.text._ZN5boost16exception_detail20copy_boost_exceptionEPNS_9exceptionEPKS1_,"axG",@progbits,_ZN5boost16exception_detail20copy_boost_exceptionEPNS_9exceptionEPKS1_,comdat
	.size	_ZN5boost16exception_detail20copy_boost_exceptionEPNS_9exceptionEPKS1_, .-_ZN5boost16exception_detail20copy_boost_exceptionEPNS_9exceptionEPKS1_
	.section	.text._ZN5boost36throw_exception_assert_compatibilityERKSt9exception,"axG",@progbits,_ZN5boost36throw_exception_assert_compatibilityERKSt9exception,comdat
	.weak	_ZN5boost36throw_exception_assert_compatibilityERKSt9exception
	.type	_ZN5boost36throw_exception_assert_compatibilityERKSt9exception, @function
_ZN5boost36throw_exception_assert_compatibilityERKSt9exception:
.LFB3798:
	.cfi_startproc
	endbr64
	pushq	%rbp
	.cfi_def_cfa_offset 16
	.cfi_offset 6, -16
	movq	%rsp, %rbp
	.cfi_def_cfa_register 6
	movq	%rdi, -8(%rbp)
	nop
	popq	%rbp
	.cfi_def_cfa 7, 8
	ret
	.cfi_endproc
.LFE3798:
	.size	_ZN5boost36throw_exception_assert_compatibilityERKSt9exception, .-_ZN5boost36throw_exception_assert_compatibilityERKSt9exception
	.section	.rodata
	.align 8
	.type	_ZN5boost9containerL19ADP_nodes_per_blockE, @object
	.size	_ZN5boost9containerL19ADP_nodes_per_blockE, 8
_ZN5boost9containerL19ADP_nodes_per_blockE:
	.quad	256
	.align 8
	.type	_ZN5boost9containerL19ADP_max_free_blocksE, @object
	.size	_ZN5boost9containerL19ADP_max_free_blocksE, 8
_ZN5boost9containerL19ADP_max_free_blocksE:
	.quad	2
	.align 8
	.type	_ZN5boost9containerL20ADP_overhead_percentE, @object
	.size	_ZN5boost9containerL20ADP_overhead_percentE, 8
_ZN5boost9containerL20ADP_overhead_percentE:
	.quad	1
	.align 8
	.type	_ZN5boost9containerL18ADP_only_alignmentE, @object
	.size	_ZN5boost9containerL18ADP_only_alignmentE, 8
_ZN5boost9containerL18ADP_only_alignmentE:
	.zero	8
	.align 8
	.type	_ZN5boost9containerL25NodeAlloc_nodes_per_blockE, @object
	.size	_ZN5boost9containerL25NodeAlloc_nodes_per_blockE, 8
_ZN5boost9containerL25NodeAlloc_nodes_per_blockE:
	.quad	256
	.type	_ZN5boost9containerL13ordered_rangeE, @object
	.size	_ZN5boost9containerL13ordered_rangeE, 1
_ZN5boost9containerL13ordered_rangeE:
	.zero	1
	.type	_ZN5boost9containerL20ordered_unique_rangeE, @object
	.size	_ZN5boost9containerL20ordered_unique_rangeE, 1
_ZN5boost9containerL20ordered_unique_rangeE:
	.zero	1
	.type	_ZN5boost9containerL12default_initE, @object
	.size	_ZN5boost9containerL12default_initE, 1
_ZN5boost9containerL12default_initE:
	.zero	1
	.type	_ZN5boost9containerL10value_initE, @object
	.size	_ZN5boost9containerL10value_initE, 1
_ZN5boost9containerL10value_initE:
	.zero	1
	.align 4
	.type	_ZN5boost6detail16static_log2_implL6n_zeroE, @object
	.size	_ZN5boost6detail16static_log2_implL6n_zeroE, 4
_ZN5boost6detail16static_log2_implL6n_zeroE:
	.long	16
	.align 4
	.type	_ZN5boost6detail16static_log2_implL9initial_nE, @object
	.size	_ZN5boost6detail16static_log2_implL9initial_nE, 4
_ZN5boost6detail16static_log2_implL9initial_nE:
	.long	32
	.align 8
	.type	_ZN5boost14multiprecisionL12max_block_10E, @object
	.size	_ZN5boost14multiprecisionL12max_block_10E, 8
_ZN5boost14multiprecisionL12max_block_10E:
	.quad	1000000000000000000
	.align 8
	.type	_ZN5boost14multiprecisionL19digits_per_block_10E, @object
	.size	_ZN5boost14multiprecisionL19digits_per_block_10E, 8
_ZN5boost14multiprecisionL19digits_per_block_10E:
	.quad	18
	.align 4
	.type	_ZN5boost14multiprecisionL13bits_per_limbE, @object
	.size	_ZN5boost14multiprecisionL13bits_per_limbE, 4
_ZN5boost14multiprecisionL13bits_per_limbE:
	.long	64
	.section	.text._ZN5boost14multiprecision8backends6detail15verify_new_sizeEjjRKN4mpl_4int_ILi0EEE,"axG",@progbits,_ZN5boost14multiprecision8backends6detail15verify_new_sizeEjjRKN4mpl_4int_ILi0EEE,comdat
	.weak	_ZN5boost14multiprecision8backends6detail15verify_new_sizeEjjRKN4mpl_4int_ILi0EEE
	.type	_ZN5boost14multiprecision8backends6detail15verify_new_sizeEjjRKN4mpl_4int_ILi0EEE, @function
_ZN5boost14multiprecision8backends6detail15verify_new_sizeEjjRKN4mpl_4int_ILi0EEE:
.LFB8295:
	.cfi_startproc
	endbr64
	pushq	%rbp
	.cfi_def_cfa_offset 16
	.cfi_offset 6, -16
	movq	%rsp, %rbp
	.cfi_def_cfa_register 6
	movl	%edi, -4(%rbp)
	movl	%esi, -8(%rbp)
	movq	%rdx, -16(%rbp)
	nop
	popq	%rbp
	.cfi_def_cfa 7, 8
	ret
	.cfi_endproc
.LFE8295:
	.size	_ZN5boost14multiprecision8backends6detail15verify_new_sizeEjjRKN4mpl_4int_ILi0EEE, .-_ZN5boost14multiprecision8backends6detail15verify_new_sizeEjjRKN4mpl_4int_ILi0EEE
	.section	.rodata
	.align 4
	.type	_ZN5boost4math9constantsL17max_string_digitsE, @object
	.size	_ZN5boost4math9constantsL17max_string_digitsE, 4
_ZN5boost4math9constantsL17max_string_digitsE:
	.long	335
	.align 4
	.type	_ZN5boost4math15float_constantsL4halfE, @object
	.size	_ZN5boost4math15float_constantsL4halfE, 4
_ZN5boost4math15float_constantsL4halfE:
	.long	1056964608
	.align 8
	.type	_ZN5boost4math16double_constantsL4halfE, @object
	.size	_ZN5boost4math16double_constantsL4halfE, 8
_ZN5boost4math16double_constantsL4halfE:
	.long	0
	.long	1071644672
	.align 16
	.type	_ZN5boost4math21long_double_constantsL4halfE, @object
	.size	_ZN5boost4math21long_double_constantsL4halfE, 16
_ZN5boost4math21long_double_constantsL4halfE:
	.long	0
	.long	2147483648
	.long	16382
	.long	0
	.align 4
	.type	_ZN5boost4math15float_constantsL5thirdE, @object
	.size	_ZN5boost4math15float_constantsL5thirdE, 4
_ZN5boost4math15float_constantsL5thirdE:
	.long	1051372203
	.align 8
	.type	_ZN5boost4math16double_constantsL5thirdE, @object
	.size	_ZN5boost4math16double_constantsL5thirdE, 8
_ZN5boost4math16double_constantsL5thirdE:
	.long	1431655765
	.long	1070945621
	.align 16
	.type	_ZN5boost4math21long_double_constantsL5thirdE, @object
	.size	_ZN5boost4math21long_double_constantsL5thirdE, 16
_ZN5boost4math21long_double_constantsL5thirdE:
	.long	2863311531
	.long	2863311530
	.long	16381
	.long	0
	.align 4
	.type	_ZN5boost4math15float_constantsL9twothirdsE, @object
	.size	_ZN5boost4math15float_constantsL9twothirdsE, 4
_ZN5boost4math15float_constantsL9twothirdsE:
	.long	1059760811
	.align 8
	.type	_ZN5boost4math16double_constantsL9twothirdsE, @object
	.size	_ZN5boost4math16double_constantsL9twothirdsE, 8
_ZN5boost4math16double_constantsL9twothirdsE:
	.long	1431655765
	.long	1071994197
	.align 16
	.type	_ZN5boost4math21long_double_constantsL9twothirdsE, @object
	.size	_ZN5boost4math21long_double_constantsL9twothirdsE, 16
_ZN5boost4math21long_double_constantsL9twothirdsE:
	.long	2863311531
	.long	2863311530
	.long	16382
	.long	0
	.align 4
	.type	_ZN5boost4math15float_constantsL10two_thirdsE, @object
	.size	_ZN5boost4math15float_constantsL10two_thirdsE, 4
_ZN5boost4math15float_constantsL10two_thirdsE:
	.long	1059760811
	.align 8
	.type	_ZN5boost4math16double_constantsL10two_thirdsE, @object
	.size	_ZN5boost4math16double_constantsL10two_thirdsE, 8
_ZN5boost4math16double_constantsL10two_thirdsE:
	.long	1431655765
	.long	1071994197
	.align 16
	.type	_ZN5boost4math21long_double_constantsL10two_thirdsE, @object
	.size	_ZN5boost4math21long_double_constantsL10two_thirdsE, 16
_ZN5boost4math21long_double_constantsL10two_thirdsE:
	.long	2863311531
	.long	2863311530
	.long	16382
	.long	0
	.align 4
	.type	_ZN5boost4math15float_constantsL5sixthE, @object
	.size	_ZN5boost4math15float_constantsL5sixthE, 4
_ZN5boost4math15float_constantsL5sixthE:
	.long	1042983595
	.align 8
	.type	_ZN5boost4math16double_constantsL5sixthE, @object
	.size	_ZN5boost4math16double_constantsL5sixthE, 8
_ZN5boost4math16double_constantsL5sixthE:
	.long	1431655765
	.long	1069897045
	.align 16
	.type	_ZN5boost4math21long_double_constantsL5sixthE, @object
	.size	_ZN5boost4math21long_double_constantsL5sixthE, 16
_ZN5boost4math21long_double_constantsL5sixthE:
	.long	2863311531
	.long	2863311530
	.long	16380
	.long	0
	.align 4
	.type	_ZN5boost4math15float_constantsL14three_quartersE, @object
	.size	_ZN5boost4math15float_constantsL14three_quartersE, 4
_ZN5boost4math15float_constantsL14three_quartersE:
	.long	1061158912
	.align 8
	.type	_ZN5boost4math16double_constantsL14three_quartersE, @object
	.size	_ZN5boost4math16double_constantsL14three_quartersE, 8
_ZN5boost4math16double_constantsL14three_quartersE:
	.long	0
	.long	1072168960
	.align 16
	.type	_ZN5boost4math21long_double_constantsL14three_quartersE, @object
	.size	_ZN5boost4math21long_double_constantsL14three_quartersE, 16
_ZN5boost4math21long_double_constantsL14three_quartersE:
	.long	0
	.long	3221225472
	.long	16382
	.long	0
	.align 4
	.type	_ZN5boost4math15float_constantsL8root_twoE, @object
	.size	_ZN5boost4math15float_constantsL8root_twoE, 4
_ZN5boost4math15float_constantsL8root_twoE:
	.long	1068827891
	.align 8
	.type	_ZN5boost4math16double_constantsL8root_twoE, @object
	.size	_ZN5boost4math16double_constantsL8root_twoE, 8
_ZN5boost4math16double_constantsL8root_twoE:
	.long	1719614413
	.long	1073127582
	.align 16
	.type	_ZN5boost4math21long_double_constantsL8root_twoE, @object
	.size	_ZN5boost4math21long_double_constantsL8root_twoE, 16
_ZN5boost4math21long_double_constantsL8root_twoE:
	.long	4192101508
	.long	3037000499
	.long	16383
	.long	0
	.align 4
	.type	_ZN5boost4math15float_constantsL10root_threeE, @object
	.size	_ZN5boost4math15float_constantsL10root_threeE, 4
_ZN5boost4math15float_constantsL10root_threeE:
	.long	1071494103
	.align 8
	.type	_ZN5boost4math16double_constantsL10root_threeE, @object
	.size	_ZN5boost4math16double_constantsL10root_threeE, 8
_ZN5boost4math16double_constantsL10root_threeE:
	.long	3898100906
	.long	1073460858
	.align 16
	.type	_ZN5boost4math21long_double_constantsL10root_threeE, @object
	.size	_ZN5boost4math21long_double_constantsL10root_threeE, 16
_ZN5boost4math21long_double_constantsL10root_threeE:
	.long	3261420446
	.long	3719550786
	.long	16383
	.long	0
	.align 4
	.type	_ZN5boost4math15float_constantsL13half_root_twoE, @object
	.size	_ZN5boost4math15float_constantsL13half_root_twoE, 4
_ZN5boost4math15float_constantsL13half_root_twoE:
	.long	1060439283
	.align 8
	.type	_ZN5boost4math16double_constantsL13half_root_twoE, @object
	.size	_ZN5boost4math16double_constantsL13half_root_twoE, 8
_ZN5boost4math16double_constantsL13half_root_twoE:
	.long	1719614413
	.long	1072079006
	.align 16
	.type	_ZN5boost4math21long_double_constantsL13half_root_twoE, @object
	.size	_ZN5boost4math21long_double_constantsL13half_root_twoE, 16
_ZN5boost4math21long_double_constantsL13half_root_twoE:
	.long	4192101508
	.long	3037000499
	.long	16382
	.long	0
	.align 4
	.type	_ZN5boost4math15float_constantsL6ln_twoE, @object
	.size	_ZN5boost4math15float_constantsL6ln_twoE, 4
_ZN5boost4math15float_constantsL6ln_twoE:
	.long	1060205080
	.align 8
	.type	_ZN5boost4math16double_constantsL6ln_twoE, @object
	.size	_ZN5boost4math16double_constantsL6ln_twoE, 8
_ZN5boost4math16double_constantsL6ln_twoE:
	.long	4277811695
	.long	1072049730
	.align 16
	.type	_ZN5boost4math21long_double_constantsL6ln_twoE, @object
	.size	_ZN5boost4math21long_double_constantsL6ln_twoE, 16
_ZN5boost4math21long_double_constantsL6ln_twoE:
	.long	3520035244
	.long	2977044471
	.long	16382
	.long	0
	.align 4
	.type	_ZN5boost4math15float_constantsL9ln_ln_twoE, @object
	.size	_ZN5boost4math15float_constantsL9ln_ln_twoE, 4
_ZN5boost4math15float_constantsL9ln_ln_twoE:
	.long	3199969173
	.align 8
	.type	_ZN5boost4math16double_constantsL9ln_ln_twoE, @object
	.size	_ZN5boost4math16double_constantsL9ln_ln_twoE, 8
_ZN5boost4math16double_constantsL9ln_ln_twoE:
	.long	2614979487
	.long	-1076398862
	.align 16
	.type	_ZN5boost4math21long_double_constantsL9ln_ln_twoE, @object
	.size	_ZN5boost4math21long_double_constantsL9ln_ln_twoE, 16
_ZN5boost4math21long_double_constantsL9ln_ln_twoE:
	.long	3948737800
	.long	3148322014
	.long	49149
	.long	0
	.align 4
	.type	_ZN5boost4math15float_constantsL12root_ln_fourE, @object
	.size	_ZN5boost4math15float_constantsL12root_ln_fourE, 4
_ZN5boost4math15float_constantsL12root_ln_fourE:
	.long	1066841439
	.align 8
	.type	_ZN5boost4math16double_constantsL12root_ln_fourE, @object
	.size	_ZN5boost4math16double_constantsL12root_ln_fourE, 8
_ZN5boost4math16double_constantsL12root_ln_fourE:
	.long	3830119491
	.long	1072879275
	.align 16
	.type	_ZN5boost4math21long_double_constantsL12root_ln_fourE, @object
	.size	_ZN5boost4math21long_double_constantsL12root_ln_fourE, 16
_ZN5boost4math21long_double_constantsL12root_ln_fourE:
	.long	1474435326
	.long	2528468770
	.long	16383
	.long	0
	.align 4
	.type	_ZN5boost4math15float_constantsL16one_div_root_twoE, @object
	.size	_ZN5boost4math15float_constantsL16one_div_root_twoE, 4
_ZN5boost4math15float_constantsL16one_div_root_twoE:
	.long	1060439283
	.align 8
	.type	_ZN5boost4math16double_constantsL16one_div_root_twoE, @object
	.size	_ZN5boost4math16double_constantsL16one_div_root_twoE, 8
_ZN5boost4math16double_constantsL16one_div_root_twoE:
	.long	1719614413
	.long	1072079006
	.align 16
	.type	_ZN5boost4math21long_double_constantsL16one_div_root_twoE, @object
	.size	_ZN5boost4math21long_double_constantsL16one_div_root_twoE, 16
_ZN5boost4math21long_double_constantsL16one_div_root_twoE:
	.long	4192101508
	.long	3037000499
	.long	16382
	.long	0
	.align 4
	.type	_ZN5boost4math15float_constantsL2piE, @object
	.size	_ZN5boost4math15float_constantsL2piE, 4
_ZN5boost4math15float_constantsL2piE:
	.long	1078530011
	.align 8
	.type	_ZN5boost4math16double_constantsL2piE, @object
	.size	_ZN5boost4math16double_constantsL2piE, 8
_ZN5boost4math16double_constantsL2piE:
	.long	1413754136
	.long	1074340347
	.align 16
	.type	_ZN5boost4math21long_double_constantsL2piE, @object
	.size	_ZN5boost4math21long_double_constantsL2piE, 16
_ZN5boost4math21long_double_constantsL2piE:
	.long	560513589
	.long	3373259426
	.long	16384
	.long	0
	.align 4
	.type	_ZN5boost4math15float_constantsL7half_piE, @object
	.size	_ZN5boost4math15float_constantsL7half_piE, 4
_ZN5boost4math15float_constantsL7half_piE:
	.long	1070141403
	.align 8
	.type	_ZN5boost4math16double_constantsL7half_piE, @object
	.size	_ZN5boost4math16double_constantsL7half_piE, 8
_ZN5boost4math16double_constantsL7half_piE:
	.long	1413754136
	.long	1073291771
	.align 16
	.type	_ZN5boost4math21long_double_constantsL7half_piE, @object
	.size	_ZN5boost4math21long_double_constantsL7half_piE, 16
_ZN5boost4math21long_double_constantsL7half_piE:
	.long	560513589
	.long	3373259426
	.long	16383
	.long	0
	.align 4
	.type	_ZN5boost4math15float_constantsL8third_piE, @object
	.size	_ZN5boost4math15float_constantsL8third_piE, 4
_ZN5boost4math15float_constantsL8third_piE:
	.long	1065749138
	.align 8
	.type	_ZN5boost4math16double_constantsL8third_piE, @object
	.size	_ZN5boost4math16double_constantsL8third_piE, 8
_ZN5boost4math16double_constantsL8third_piE:
	.long	942502758
	.long	1072742738
	.align 16
	.type	_ZN5boost4math21long_double_constantsL8third_piE, @object
	.size	_ZN5boost4math21long_double_constantsL8third_piE, 16
_ZN5boost4math21long_double_constantsL8third_piE:
	.long	1805331491
	.long	2248839617
	.long	16383
	.long	0
	.align 4
	.type	_ZN5boost4math15float_constantsL8sixth_piE, @object
	.size	_ZN5boost4math15float_constantsL8sixth_piE, 4
_ZN5boost4math15float_constantsL8sixth_piE:
	.long	1057360530
	.align 8
	.type	_ZN5boost4math16double_constantsL8sixth_piE, @object
	.size	_ZN5boost4math16double_constantsL8sixth_piE, 8
_ZN5boost4math16double_constantsL8sixth_piE:
	.long	942502758
	.long	1071694162
	.align 16
	.type	_ZN5boost4math21long_double_constantsL8sixth_piE, @object
	.size	_ZN5boost4math21long_double_constantsL8sixth_piE, 16
_ZN5boost4math21long_double_constantsL8sixth_piE:
	.long	1805331491
	.long	2248839617
	.long	16382
	.long	0
	.align 4
	.type	_ZN5boost4math15float_constantsL6two_piE, @object
	.size	_ZN5boost4math15float_constantsL6two_piE, 4
_ZN5boost4math15float_constantsL6two_piE:
	.long	1086918619
	.align 8
	.type	_ZN5boost4math16double_constantsL6two_piE, @object
	.size	_ZN5boost4math16double_constantsL6two_piE, 8
_ZN5boost4math16double_constantsL6two_piE:
	.long	1413754136
	.long	1075388923
	.align 16
	.type	_ZN5boost4math21long_double_constantsL6two_piE, @object
	.size	_ZN5boost4math21long_double_constantsL6two_piE, 16
_ZN5boost4math21long_double_constantsL6two_piE:
	.long	560513589
	.long	3373259426
	.long	16385
	.long	0
	.align 4
	.type	_ZN5boost4math15float_constantsL13two_thirds_piE, @object
	.size	_ZN5boost4math15float_constantsL13two_thirds_piE, 4
_ZN5boost4math15float_constantsL13two_thirds_piE:
	.long	1074137746
	.align 8
	.type	_ZN5boost4math16double_constantsL13two_thirds_piE, @object
	.size	_ZN5boost4math16double_constantsL13two_thirds_piE, 8
_ZN5boost4math16double_constantsL13two_thirds_piE:
	.long	942502758
	.long	1073791314
	.align 16
	.type	_ZN5boost4math21long_double_constantsL13two_thirds_piE, @object
	.size	_ZN5boost4math21long_double_constantsL13two_thirds_piE, 16
_ZN5boost4math21long_double_constantsL13two_thirds_piE:
	.long	1805331491
	.long	2248839617
	.long	16384
	.long	0
	.align 4
	.type	_ZN5boost4math15float_constantsL17three_quarters_piE, @object
	.size	_ZN5boost4math15float_constantsL17three_quarters_piE, 4
_ZN5boost4math15float_constantsL17three_quarters_piE:
	.long	1075235812
	.align 8
	.type	_ZN5boost4math16double_constantsL17three_quarters_piE, @object
	.size	_ZN5boost4math16double_constantsL17three_quarters_piE, 8
_ZN5boost4math16double_constantsL17three_quarters_piE:
	.long	2134057426
	.long	1073928572
	.align 16
	.type	_ZN5boost4math21long_double_constantsL17three_quarters_piE, @object
	.size	_ZN5boost4math21long_double_constantsL17three_quarters_piE, 16
_ZN5boost4math21long_double_constantsL17three_quarters_piE:
	.long	2567868840
	.long	2529944569
	.long	16384
	.long	0
	.align 4
	.type	_ZN5boost4math15float_constantsL14four_thirds_piE, @object
	.size	_ZN5boost4math15float_constantsL14four_thirds_piE, 4
_ZN5boost4math15float_constantsL14four_thirds_piE:
	.long	1082526354
	.align 8
	.type	_ZN5boost4math16double_constantsL14four_thirds_piE, @object
	.size	_ZN5boost4math16double_constantsL14four_thirds_piE, 8
_ZN5boost4math16double_constantsL14four_thirds_piE:
	.long	942502758
	.long	1074839890
	.align 16
	.type	_ZN5boost4math21long_double_constantsL14four_thirds_piE, @object
	.size	_ZN5boost4math21long_double_constantsL14four_thirds_piE, 16
_ZN5boost4math21long_double_constantsL14four_thirds_piE:
	.long	1805331491
	.long	2248839617
	.long	16385
	.long	0
	.align 4
	.type	_ZN5boost4math15float_constantsL14one_div_two_piE, @object
	.size	_ZN5boost4math15float_constantsL14one_div_two_piE, 4
_ZN5boost4math15float_constantsL14one_div_two_piE:
	.long	1042479491
	.align 8
	.type	_ZN5boost4math16double_constantsL14one_div_two_piE, @object
	.size	_ZN5boost4math16double_constantsL14one_div_two_piE, 8
_ZN5boost4math16double_constantsL14one_div_two_piE:
	.long	1841940611
	.long	1069834032
	.align 16
	.type	_ZN5boost4math21long_double_constantsL14one_div_two_piE, @object
	.size	_ZN5boost4math21long_double_constantsL14one_div_two_piE, 16
_ZN5boost4math21long_double_constantsL14one_div_two_piE:
	.long	1313084714
	.long	2734261102
	.long	16380
	.long	0
	.align 4
	.type	_ZN5boost4math15float_constantsL19one_div_root_two_piE, @object
	.size	_ZN5boost4math15float_constantsL19one_div_root_two_piE, 4
_ZN5boost4math15float_constantsL19one_div_root_two_piE:
	.long	1053573674
	.align 8
	.type	_ZN5boost4math16double_constantsL19one_div_root_two_piE, @object
	.size	_ZN5boost4math16double_constantsL19one_div_root_two_piE, 8
_ZN5boost4math16double_constantsL19one_div_root_two_piE:
	.long	869545553
	.long	1071220805
	.align 16
	.type	_ZN5boost4math21long_double_constantsL19one_div_root_two_piE, @object
	.size	_ZN5boost4math21long_double_constantsL19one_div_root_two_piE, 16
_ZN5boost4math21long_double_constantsL19one_div_root_two_piE:
	.long	2712831080
	.long	3426888094
	.long	16381
	.long	0
	.align 4
	.type	_ZN5boost4math15float_constantsL7root_piE, @object
	.size	_ZN5boost4math15float_constantsL7root_piE, 4
_ZN5boost4math15float_constantsL7root_piE:
	.long	1071833029
	.align 8
	.type	_ZN5boost4math16double_constantsL7root_piE, @object
	.size	_ZN5boost4math16double_constantsL7root_piE, 8
_ZN5boost4math16double_constantsL7root_piE:
	.long	2444554091
	.long	1073503224
	.align 16
	.type	_ZN5boost4math21long_double_constantsL7root_piE, @object
	.size	_ZN5boost4math21long_double_constantsL7root_piE, 16
_ZN5boost4math21long_double_constantsL7root_piE:
	.long	2809877821
	.long	3806315661
	.long	16383
	.long	0
	.align 4
	.type	_ZN5boost4math15float_constantsL12root_half_piE, @object
	.size	_ZN5boost4math15float_constantsL12root_half_piE, 4
_ZN5boost4math15float_constantsL12root_half_piE:
	.long	1067478169
	.align 8
	.type	_ZN5boost4math16double_constantsL12root_half_piE, @object
	.size	_ZN5boost4math16double_constantsL12root_half_piE, 8
_ZN5boost4math16double_constantsL12root_half_piE:
	.long	536225542
	.long	1072958867
	.align 16
	.type	_ZN5boost4math21long_double_constantsL12root_half_piE, @object
	.size	_ZN5boost4math21long_double_constantsL12root_half_piE, 16
_ZN5boost4math21long_double_constantsL12root_half_piE:
	.long	2973248691
	.long	2691471615
	.long	16383
	.long	0
	.align 4
	.type	_ZN5boost4math15float_constantsL11root_two_piE, @object
	.size	_ZN5boost4math15float_constantsL11root_two_piE, 4
_ZN5boost4math15float_constantsL11root_two_piE:
	.long	1075866777
	.align 8
	.type	_ZN5boost4math16double_constantsL11root_two_piE, @object
	.size	_ZN5boost4math16double_constantsL11root_two_piE, 8
_ZN5boost4math16double_constantsL11root_two_piE:
	.long	536225542
	.long	1074007443
	.align 16
	.type	_ZN5boost4math21long_double_constantsL11root_two_piE, @object
	.size	_ZN5boost4math21long_double_constantsL11root_two_piE, 16
_ZN5boost4math21long_double_constantsL11root_two_piE:
	.long	2973248691
	.long	2691471615
	.long	16384
	.long	0
	.align 4
	.type	_ZN5boost4math15float_constantsL15log_root_two_piE, @object
	.size	_ZN5boost4math15float_constantsL15log_root_two_piE, 4
_ZN5boost4math15float_constantsL15log_root_two_piE:
	.long	1063993230
	.align 8
	.type	_ZN5boost4math16double_constantsL15log_root_two_piE, @object
	.size	_ZN5boost4math16double_constantsL15log_root_two_piE, 8
_ZN5boost4math16double_constantsL15log_root_two_piE:
	.long	3362045621
	.long	1072523249
	.align 16
	.type	_ZN5boost4math21long_double_constantsL15log_root_two_piE, @object
	.size	_ZN5boost4math21long_double_constantsL15log_root_two_piE, 16
_ZN5boost4math21long_double_constantsL15log_root_two_piE:
	.long	636855605
	.long	3946810947
	.long	16382
	.long	0
	.align 4
	.type	_ZN5boost4math15float_constantsL15one_div_root_piE, @object
	.size	_ZN5boost4math15float_constantsL15one_div_root_piE, 4
_ZN5boost4math15float_constantsL15one_div_root_piE:
	.long	1058041531
	.align 8
	.type	_ZN5boost4math16double_constantsL15one_div_root_piE, @object
	.size	_ZN5boost4math16double_constantsL15one_div_root_piE, 8
_ZN5boost4math16double_constantsL15one_div_root_piE:
	.long	1346542445
	.long	1071779287
	.align 16
	.type	_ZN5boost4math21long_double_constantsL15one_div_root_piE, @object
	.size	_ZN5boost4math21long_double_constantsL15one_div_root_piE, 16
_ZN5boost4math21long_double_constantsL15one_div_root_piE:
	.long	349923469
	.long	2423175810
	.long	16382
	.long	0
	.align 4
	.type	_ZN5boost4math15float_constantsL15root_one_div_piE, @object
	.size	_ZN5boost4math15float_constantsL15root_one_div_piE, 4
_ZN5boost4math15float_constantsL15root_one_div_piE:
	.long	1058041531
	.align 8
	.type	_ZN5boost4math16double_constantsL15root_one_div_piE, @object
	.size	_ZN5boost4math16double_constantsL15root_one_div_piE, 8
_ZN5boost4math16double_constantsL15root_one_div_piE:
	.long	1346542445
	.long	1071779287
	.align 16
	.type	_ZN5boost4math21long_double_constantsL15root_one_div_piE, @object
	.size	_ZN5boost4math21long_double_constantsL15root_one_div_piE, 16
_ZN5boost4math21long_double_constantsL15root_one_div_piE:
	.long	349923469
	.long	2423175810
	.long	16382
	.long	0
	.align 4
	.type	_ZN5boost4math15float_constantsL14pi_minus_threeE, @object
	.size	_ZN5boost4math15float_constantsL14pi_minus_threeE, 4
_ZN5boost4math15float_constantsL14pi_minus_threeE:
	.long	1041300906
	.align 8
	.type	_ZN5boost4math16double_constantsL14pi_minus_threeE, @object
	.size	_ZN5boost4math16double_constantsL14pi_minus_threeE, 8
_ZN5boost4math16double_constantsL14pi_minus_threeE:
	.long	1145229700
	.long	1069686709
	.align 16
	.type	_ZN5boost4math21long_double_constantsL14pi_minus_threeE, @object
	.size	_ZN5boost4math21long_double_constantsL14pi_minus_threeE, 16
_ZN5boost4math21long_double_constantsL14pi_minus_threeE:
	.long	378282828
	.long	2432543266
	.long	16380
	.long	0
	.align 4
	.type	_ZN5boost4math15float_constantsL13four_minus_piE, @object
	.size	_ZN5boost4math15float_constantsL13four_minus_piE, 4
_ZN5boost4math15float_constantsL13four_minus_piE:
	.long	1062977685
	.align 8
	.type	_ZN5boost4math16double_constantsL13four_minus_piE, @object
	.size	_ZN5boost4math16double_constantsL13four_minus_piE, 8
_ZN5boost4math16double_constantsL13four_minus_piE:
	.long	2934918047
	.long	1072396306
	.align 16
	.type	_ZN5boost4math21long_double_constantsL13four_minus_piE, @object
	.size	_ZN5boost4math21long_double_constantsL13four_minus_piE, 16
_ZN5boost4math21long_double_constantsL13four_minus_piE:
	.long	2052912941
	.long	3686831479
	.long	16382
	.long	0
	.align 4
	.type	_ZN5boost4math15float_constantsL8pi_pow_eE, @object
	.size	_ZN5boost4math15float_constantsL8pi_pow_eE, 4
_ZN5boost4math15float_constantsL8pi_pow_eE:
	.long	1102294107
	.align 8
	.type	_ZN5boost4math16double_constantsL8pi_pow_eE, @object
	.size	_ZN5boost4math16double_constantsL8pi_pow_eE, 8
_ZN5boost4math16double_constantsL8pi_pow_eE:
	.long	1547178257
	.long	1077310859
	.align 16
	.type	_ZN5boost4math21long_double_constantsL8pi_pow_eE, @object
	.size	_ZN5boost4math21long_double_constantsL8pi_pow_eE, 16
_ZN5boost4math21long_double_constantsL8pi_pow_eE:
	.long	3230173638
	.long	3014417121
	.long	16387
	.long	0
	.align 4
	.type	_ZN5boost4math15float_constantsL6pi_sqrE, @object
	.size	_ZN5boost4math15float_constantsL6pi_sqrE, 4
_ZN5boost4math15float_constantsL6pi_sqrE:
	.long	1092479462
	.align 8
	.type	_ZN5boost4math16double_constantsL6pi_sqrE, @object
	.size	_ZN5boost4math16double_constantsL6pi_sqrE, 8
_ZN5boost4math16double_constantsL6pi_sqrE:
	.long	3384690142
	.long	1076084028
	.align 16
	.type	_ZN5boost4math21long_double_constantsL6pi_sqrE, @object
	.size	_ZN5boost4math21long_double_constantsL6pi_sqrE, 16
_ZN5boost4math21long_double_constantsL6pi_sqrE:
	.long	4063163090
	.long	2649351757
	.long	16386
	.long	0
	.align 4
	.type	_ZN5boost4math15float_constantsL14pi_sqr_div_sixE, @object
	.size	_ZN5boost4math15float_constantsL14pi_sqr_div_sixE, 4
_ZN5boost4math15float_constantsL14pi_sqr_div_sixE:
	.long	1070763315
	.align 8
	.type	_ZN5boost4math16double_constantsL14pi_sqr_div_sixE, @object
	.size	_ZN5boost4math16double_constantsL14pi_sqr_div_sixE, 8
_ZN5boost4math16double_constantsL14pi_sqr_div_sixE:
	.long	1649608659
	.long	1073369510
	.align 16
	.type	_ZN5boost4math21long_double_constantsL14pi_sqr_div_sixE, @object
	.size	_ZN5boost4math21long_double_constantsL14pi_sqr_div_sixE, 16
_ZN5boost4math21long_double_constantsL14pi_sqr_div_sixE:
	.long	2554239256
	.long	3532469010
	.long	16383
	.long	0
	.align 4
	.type	_ZN5boost4math15float_constantsL8pi_cubedE, @object
	.size	_ZN5boost4math15float_constantsL8pi_cubedE, 4
_ZN5boost4math15float_constantsL8pi_cubedE:
	.long	1106775259
	.align 8
	.type	_ZN5boost4math16double_constantsL8pi_cubedE, @object
	.size	_ZN5boost4math16double_constantsL8pi_cubedE, 8
_ZN5boost4math16double_constantsL8pi_cubedE:
	.long	1496882556
	.long	1077871003
	.align 16
	.type	_ZN5boost4math21long_double_constantsL8pi_cubedE, @object
	.size	_ZN5boost4math21long_double_constantsL8pi_cubedE, 16
_ZN5boost4math21long_double_constantsL8pi_cubedE:
	.long	3303792880
	.long	4161592009
	.long	16387
	.long	0
	.align 4
	.type	_ZN5boost4math15float_constantsL7cbrt_piE, @object
	.size	_ZN5boost4math15float_constantsL7cbrt_piE, 4
_ZN5boost4math15float_constantsL7cbrt_piE:
	.long	1069250495
	.align 8
	.type	_ZN5boost4math16double_constantsL7cbrt_piE, @object
	.size	_ZN5boost4math16double_constantsL7cbrt_piE, 8
_ZN5boost4math16double_constantsL7cbrt_piE:
	.long	3878749368
	.long	1073180407
	.align 16
	.type	_ZN5boost4math21long_double_constantsL7cbrt_piE, @object
	.size	_ZN5boost4math21long_double_constantsL7cbrt_piE, 16
_ZN5boost4math21long_double_constantsL7cbrt_piE:
	.long	2284174424
	.long	3145187129
	.long	16383
	.long	0
	.align 4
	.type	_ZN5boost4math15float_constantsL15one_div_cbrt_piE, @object
	.size	_ZN5boost4math15float_constantsL15one_div_cbrt_piE, 4
_ZN5boost4math15float_constantsL15one_div_cbrt_piE:
	.long	1060031216
	.align 8
	.type	_ZN5boost4math16double_constantsL15one_div_cbrt_piE, @object
	.size	_ZN5boost4math16double_constantsL15one_div_cbrt_piE, 8
_ZN5boost4math16double_constantsL15one_div_cbrt_piE:
	.long	4139592430
	.long	1072027997
	.align 16
	.type	_ZN5boost4math21long_double_constantsL15one_div_cbrt_piE, @object
	.size	_ZN5boost4math21long_double_constantsL15one_div_cbrt_piE, 16
_ZN5boost4math21long_double_constantsL15one_div_cbrt_piE:
	.long	3914820817
	.long	2932535221
	.long	16382
	.long	0
	.align 4
	.type	_ZN5boost4math15float_constantsL1eE, @object
	.size	_ZN5boost4math15float_constantsL1eE, 4
_ZN5boost4math15float_constantsL1eE:
	.long	1076754516
	.align 8
	.type	_ZN5boost4math16double_constantsL1eE, @object
	.size	_ZN5boost4math16double_constantsL1eE, 8
_ZN5boost4math16double_constantsL1eE:
	.long	2333366121
	.long	1074118410
	.align 16
	.type	_ZN5boost4math21long_double_constantsL1eE, @object
	.size	_ZN5boost4math21long_double_constantsL1eE, 16
_ZN5boost4math21long_double_constantsL1eE:
	.long	2730183323
	.long	2918732888
	.long	16384
	.long	0
	.align 4
	.type	_ZN5boost4math15float_constantsL14exp_minus_halfE, @object
	.size	_ZN5boost4math15float_constantsL14exp_minus_halfE, 4
_ZN5boost4math15float_constantsL14exp_minus_halfE:
	.long	1058751896
	.align 8
	.type	_ZN5boost4math16double_constantsL14exp_minus_halfE, @object
	.size	_ZN5boost4math16double_constantsL14exp_minus_halfE, 8
_ZN5boost4math16double_constantsL14exp_minus_halfE:
	.long	4235171338
	.long	1071868082
	.align 16
	.type	_ZN5boost4math21long_double_constantsL14exp_minus_halfE, @object
	.size	_ZN5boost4math21long_double_constantsL14exp_minus_halfE, 16
_ZN5boost4math21long_double_constantsL14exp_minus_halfE:
	.long	2091929588
	.long	2605029347
	.long	16382
	.long	0
	.align 4
	.type	_ZN5boost4math15float_constantsL13exp_minus_oneE, @object
	.size	_ZN5boost4math15float_constantsL13exp_minus_oneE, 4
_ZN5boost4math15float_constantsL13exp_minus_oneE:
	.long	1052531378
	.align 8
	.type	_ZN5boost4math16double_constantsL13exp_minus_oneE, @object
	.size	_ZN5boost4math16double_constantsL13exp_minus_oneE, 8
_ZN5boost4math16double_constantsL13exp_minus_oneE:
	.long	908914488
	.long	1071090518
	.align 16
	.type	_ZN5boost4math21long_double_constantsL13exp_minus_oneE, @object
	.size	_ZN5boost4math21long_double_constantsL13exp_minus_oneE, 16
_ZN5boost4math21long_double_constantsL13exp_minus_oneE:
	.long	1736031797
	.long	3160060337
	.long	16381
	.long	0
	.align 4
	.type	_ZN5boost4math15float_constantsL8e_pow_piE, @object
	.size	_ZN5boost4math15float_constantsL8e_pow_piE, 4
_ZN5boost4math15float_constantsL8e_pow_piE:
	.long	1102651427
	.align 8
	.type	_ZN5boost4math16double_constantsL8e_pow_piE, @object
	.size	_ZN5boost4math16double_constantsL8e_pow_piE, 8
_ZN5boost4math16double_constantsL8e_pow_piE:
	.long	1857065786
	.long	1077355524
	.align 16
	.type	_ZN5boost4math21long_double_constantsL8e_pow_piE, @object
	.size	_ZN5boost4math21long_double_constantsL8e_pow_piE, 16
_ZN5boost4math21long_double_constantsL8e_pow_piE:
	.long	2224671990
	.long	3105891189
	.long	16387
	.long	0
	.align 4
	.type	_ZN5boost4math15float_constantsL6root_eE, @object
	.size	_ZN5boost4math15float_constantsL6root_eE, 4
_ZN5boost4math15float_constantsL6root_eE:
	.long	1070795084
	.align 8
	.type	_ZN5boost4math16double_constantsL6root_eE, @object
	.size	_ZN5boost4math16double_constantsL6root_eE, 8
_ZN5boost4math16double_constantsL6root_eE:
	.long	2384332444
	.long	1073373481
	.align 16
	.type	_ZN5boost4math21long_double_constantsL6root_eE, @object
	.size	_ZN5boost4math21long_double_constantsL6root_eE, 16
_ZN5boost4math21long_double_constantsL6root_eE:
	.long	4029996620
	.long	3540601968
	.long	16383
	.long	0
	.align 4
	.type	_ZN5boost4math15float_constantsL7log10_eE, @object
	.size	_ZN5boost4math15float_constantsL7log10_eE, 4
_ZN5boost4math15float_constantsL7log10_eE:
	.long	1054759897
	.align 8
	.type	_ZN5boost4math16double_constantsL7log10_eE, @object
	.size	_ZN5boost4math16double_constantsL7log10_eE, 8
_ZN5boost4math16double_constantsL7log10_eE:
	.long	354870542
	.long	1071369083
	.align 16
	.type	_ZN5boost4math21long_double_constantsL7log10_eE, @object
	.size	_ZN5boost4math21long_double_constantsL7log10_eE, 16
_ZN5boost4math21long_double_constantsL7log10_eE:
	.long	925397397
	.long	3730561193
	.long	16381
	.long	0
	.align 4
	.type	_ZN5boost4math15float_constantsL15one_div_log10_eE, @object
	.size	_ZN5boost4math15float_constantsL15one_div_log10_eE, 4
_ZN5boost4math15float_constantsL15one_div_log10_eE:
	.long	1075010958
	.align 8
	.type	_ZN5boost4math16double_constantsL15one_div_log10_eE, @object
	.size	_ZN5boost4math16double_constantsL15one_div_log10_eE, 8
_ZN5boost4math16double_constantsL15one_div_log10_eE:
	.long	3149223190
	.long	1073900465
	.align 16
	.type	_ZN5boost4math21long_double_constantsL15one_div_log10_eE, @object
	.size	_ZN5boost4math21long_double_constantsL15one_div_log10_eE, 16
_ZN5boost4math21long_double_constantsL15one_div_log10_eE:
	.long	2863180823
	.long	2472381917
	.long	16384
	.long	0
	.align 4
	.type	_ZN5boost4math15float_constantsL6ln_tenE, @object
	.size	_ZN5boost4math15float_constantsL6ln_tenE, 4
_ZN5boost4math15float_constantsL6ln_tenE:
	.long	1075010958
	.align 8
	.type	_ZN5boost4math16double_constantsL6ln_tenE, @object
	.size	_ZN5boost4math16double_constantsL6ln_tenE, 8
_ZN5boost4math16double_constantsL6ln_tenE:
	.long	3149223190
	.long	1073900465
	.align 16
	.type	_ZN5boost4math21long_double_constantsL6ln_tenE, @object
	.size	_ZN5boost4math21long_double_constantsL6ln_tenE, 16
_ZN5boost4math21long_double_constantsL6ln_tenE:
	.long	2863180823
	.long	2472381917
	.long	16384
	.long	0
	.align 4
	.type	_ZN5boost4math15float_constantsL6degreeE, @object
	.size	_ZN5boost4math15float_constantsL6degreeE, 4
_ZN5boost4math15float_constantsL6degreeE:
	.long	1016003125
	.align 8
	.type	_ZN5boost4math16double_constantsL6degreeE, @object
	.size	_ZN5boost4math16double_constantsL6degreeE, 8
_ZN5boost4math16double_constantsL6degreeE:
	.long	2723323193
	.long	1066524486
	.align 16
	.type	_ZN5boost4math21long_double_constantsL6degreeE, @object
	.size	_ZN5boost4math21long_double_constantsL6degreeE, 16
_ZN5boost4math21long_double_constantsL6degreeE:
	.long	2498349230
	.long	2398762258
	.long	16377
	.long	0
	.align 4
	.type	_ZN5boost4math15float_constantsL6radianE, @object
	.size	_ZN5boost4math15float_constantsL6radianE, 4
_ZN5boost4math15float_constantsL6radianE:
	.long	1113927393
	.align 8
	.type	_ZN5boost4math16double_constantsL6radianE, @object
	.size	_ZN5boost4math16double_constantsL6radianE, 8
_ZN5boost4math16double_constantsL6radianE:
	.long	442745336
	.long	1078765020
	.align 16
	.type	_ZN5boost4math21long_double_constantsL6radianE, @object
	.size	_ZN5boost4math21long_double_constantsL6radianE, 16
_ZN5boost4math21long_double_constantsL6radianE:
	.long	504348099
	.long	3845054675
	.long	16388
	.long	0
	.align 4
	.type	_ZN5boost4math15float_constantsL7sin_oneE, @object
	.size	_ZN5boost4math15float_constantsL7sin_oneE, 4
_ZN5boost4math15float_constantsL7sin_oneE:
	.long	1062693540
	.align 8
	.type	_ZN5boost4math16double_constantsL7sin_oneE, @object
	.size	_ZN5boost4math16double_constantsL7sin_oneE, 8
_ZN5boost4math16double_constantsL7sin_oneE:
	.long	2399735022
	.long	1072360788
	.align 16
	.type	_ZN5boost4math21long_double_constantsL7sin_oneE, @object
	.size	_ZN5boost4math21long_double_constantsL7sin_oneE, 16
_ZN5boost4math21long_double_constantsL7sin_oneE:
	.long	1214738465
	.long	3614090360
	.long	16382
	.long	0
	.align 4
	.type	_ZN5boost4math15float_constantsL7cos_oneE, @object
	.size	_ZN5boost4math15float_constantsL7cos_oneE, 4
_ZN5boost4math15float_constantsL7cos_oneE:
	.long	1057640768
	.align 8
	.type	_ZN5boost4math16double_constantsL7cos_oneE, @object
	.size	_ZN5boost4math16double_constantsL7cos_oneE, 8
_ZN5boost4math16double_constantsL7cos_oneE:
	.long	263521932
	.long	1071729192
	.align 16
	.type	_ZN5boost4math21long_double_constantsL7cos_oneE, @object
	.size	_ZN5boost4math21long_double_constantsL7cos_oneE, 16
_ZN5boost4math21long_double_constantsL7cos_oneE:
	.long	2822003858
	.long	2320580733
	.long	16382
	.long	0
	.align 4
	.type	_ZN5boost4math15float_constantsL8sinh_oneE, @object
	.size	_ZN5boost4math15float_constantsL8sinh_oneE, 4
_ZN5boost4math15float_constantsL8sinh_oneE:
	.long	1066822910
	.align 8
	.type	_ZN5boost4math16double_constantsL8sinh_oneE, @object
	.size	_ZN5boost4math16double_constantsL8sinh_oneE, 8
_ZN5boost4math16double_constantsL8sinh_oneE:
	.long	3293493634
	.long	1072876959
	.align 16
	.type	_ZN5boost4math21long_double_constantsL8sinh_oneE, @object
	.size	_ZN5boost4math21long_double_constantsL8sinh_oneE, 16
_ZN5boost4math21long_double_constantsL8sinh_oneE:
	.long	1976308436
	.long	2523725346
	.long	16383
	.long	0
	.align 4
	.type	_ZN5boost4math15float_constantsL8cosh_oneE, @object
	.size	_ZN5boost4math15float_constantsL8cosh_oneE, 4
_ZN5boost4math15float_constantsL8cosh_oneE:
	.long	1069908907
	.align 8
	.type	_ZN5boost4math16double_constantsL8cosh_oneE, @object
	.size	_ZN5boost4math16double_constantsL8cosh_oneE, 8
_ZN5boost4math16double_constantsL8cosh_oneE:
	.long	1373238608
	.long	1073262709
	.align 16
	.type	_ZN5boost4math21long_double_constantsL8cosh_oneE, @object
	.size	_ZN5boost4math21long_double_constantsL8cosh_oneE, 16
_ZN5boost4math21long_double_constantsL8cosh_oneE:
	.long	3484058209
	.long	3313740430
	.long	16383
	.long	0
	.align 4
	.type	_ZN5boost4math15float_constantsL3phiE, @object
	.size	_ZN5boost4math15float_constantsL3phiE, 4
_ZN5boost4math15float_constantsL3phiE:
	.long	1070537661
	.align 8
	.type	_ZN5boost4math16double_constantsL3phiE, @object
	.size	_ZN5boost4math16double_constantsL3phiE, 8
_ZN5boost4math16double_constantsL3phiE:
	.long	2610427048
	.long	1073341303
	.align 16
	.type	_ZN5boost4math21long_double_constantsL3phiE, @object
	.size	_ZN5boost4math21long_double_constantsL3phiE, 16
_ZN5boost4math21long_double_constantsL3phiE:
	.long	3215277579
	.long	3474701532
	.long	16383
	.long	0
	.align 4
	.type	_ZN5boost4math15float_constantsL6ln_phiE, @object
	.size	_ZN5boost4math15float_constantsL6ln_phiE, 4
_ZN5boost4math15float_constantsL6ln_phiE:
	.long	1056334181
	.align 8
	.type	_ZN5boost4math16double_constantsL6ln_phiE, @object
	.size	_ZN5boost4math16double_constantsL6ln_phiE, 8
_ZN5boost4math16double_constantsL6ln_phiE:
	.long	2932151818
	.long	1071565868
	.align 16
	.type	_ZN5boost4math21long_double_constantsL6ln_phiE, @object
	.size	_ZN5boost4math21long_double_constantsL6ln_phiE, 16
_ZN5boost4math21long_double_constantsL6ln_phiE:
	.long	682642598
	.long	4133578102
	.long	16381
	.long	0
	.align 4
	.type	_ZN5boost4math15float_constantsL14one_div_ln_phiE, @object
	.size	_ZN5boost4math15float_constantsL14one_div_ln_phiE, 4
_ZN5boost4math15float_constantsL14one_div_ln_phiE:
	.long	1074069344
	.align 8
	.type	_ZN5boost4math16double_constantsL14one_div_ln_phiE, @object
	.size	_ZN5boost4math16double_constantsL14one_div_ln_phiE, 8
_ZN5boost4math16double_constantsL14one_div_ln_phiE:
	.long	153590050
	.long	1073782764
	.align 16
	.type	_ZN5boost4math21long_double_constantsL14one_div_ln_phiE, @object
	.size	_ZN5boost4math21long_double_constantsL14one_div_ln_phiE, 16
_ZN5boost4math21long_double_constantsL14one_div_ln_phiE:
	.long	1019809065
	.long	2231328841
	.long	16384
	.long	0
	.align 4
	.type	_ZN5boost4math15float_constantsL5eulerE, @object
	.size	_ZN5boost4math15float_constantsL5eulerE, 4
_ZN5boost4math15float_constantsL5eulerE:
	.long	1058260072
	.align 8
	.type	_ZN5boost4math16double_constantsL5eulerE, @object
	.size	_ZN5boost4math16double_constantsL5eulerE, 8
_ZN5boost4math16double_constantsL5eulerE:
	.long	4235179545
	.long	1071806604
	.align 16
	.type	_ZN5boost4math21long_double_constantsL5eulerE, @object
	.size	_ZN5boost4math21long_double_constantsL5eulerE, 16
_ZN5boost4math21long_double_constantsL5eulerE:
	.long	2108737445
	.long	2479122403
	.long	16382
	.long	0
	.align 4
	.type	_ZN5boost4math15float_constantsL13one_div_eulerE, @object
	.size	_ZN5boost4math15float_constantsL13one_div_eulerE, 4
_ZN5boost4math15float_constantsL13one_div_eulerE:
	.long	1071497491
	.align 8
	.type	_ZN5boost4math16double_constantsL13one_div_eulerE, @object
	.size	_ZN5boost4math16double_constantsL13one_div_eulerE, 8
_ZN5boost4math16double_constantsL13one_div_eulerE:
	.long	1867525112
	.long	1073461282
	.align 16
	.type	_ZN5boost4math21long_double_constantsL13one_div_eulerE, @object
	.size	_ZN5boost4math21long_double_constantsL13one_div_eulerE, 16
_ZN5boost4math21long_double_constantsL13one_div_eulerE:
	.long	2170535747
	.long	3720418170
	.long	16383
	.long	0
	.align 4
	.type	_ZN5boost4math15float_constantsL9euler_sqrE, @object
	.size	_ZN5boost4math15float_constantsL9euler_sqrE, 4
_ZN5boost4math15float_constantsL9euler_sqrE:
	.long	1051366988
	.align 8
	.type	_ZN5boost4math16double_constantsL9euler_sqrE, @object
	.size	_ZN5boost4math16double_constantsL9euler_sqrE, 8
_ZN5boost4math16double_constantsL9euler_sqrE:
	.long	2141206165
	.long	1070944969
	.align 16
	.type	_ZN5boost4math21long_double_constantsL9euler_sqrE, @object
	.size	_ZN5boost4math21long_double_constantsL9euler_sqrE, 16
_ZN5boost4math21long_double_constantsL9euler_sqrE:
	.long	28617355
	.long	2861976573
	.long	16381
	.long	0
	.align 4
	.type	_ZN5boost4math15float_constantsL8zeta_twoE, @object
	.size	_ZN5boost4math15float_constantsL8zeta_twoE, 4
_ZN5boost4math15float_constantsL8zeta_twoE:
	.long	1070763315
	.align 8
	.type	_ZN5boost4math16double_constantsL8zeta_twoE, @object
	.size	_ZN5boost4math16double_constantsL8zeta_twoE, 8
_ZN5boost4math16double_constantsL8zeta_twoE:
	.long	1649608659
	.long	1073369510
	.align 16
	.type	_ZN5boost4math21long_double_constantsL8zeta_twoE, @object
	.size	_ZN5boost4math21long_double_constantsL8zeta_twoE, 16
_ZN5boost4math21long_double_constantsL8zeta_twoE:
	.long	2554239256
	.long	3532469010
	.long	16383
	.long	0
	.align 4
	.type	_ZN5boost4math15float_constantsL10zeta_threeE, @object
	.size	_ZN5boost4math15float_constantsL10zeta_threeE, 4
_ZN5boost4math15float_constantsL10zeta_threeE:
	.long	1067048192
	.align 8
	.type	_ZN5boost4math16double_constantsL10zeta_threeE, @object
	.size	_ZN5boost4math16double_constantsL10zeta_threeE, 8
_ZN5boost4math16double_constantsL10zeta_threeE:
	.long	82839073
	.long	1072905120
	.align 16
	.type	_ZN5boost4math21long_double_constantsL10zeta_threeE, @object
	.size	_ZN5boost4math21long_double_constantsL10zeta_threeE, 16
_ZN5boost4math21long_double_constantsL10zeta_threeE:
	.long	2150697410
	.long	2581397543
	.long	16383
	.long	0
	.align 4
	.type	_ZN5boost4math15float_constantsL7catalanE, @object
	.size	_ZN5boost4math15float_constantsL7catalanE, 4
_ZN5boost4math15float_constantsL7catalanE:
	.long	1063943353
	.align 8
	.type	_ZN5boost4math16double_constantsL7catalanE, @object
	.size	_ZN5boost4math16double_constantsL7catalanE, 8
_ZN5boost4math16double_constantsL7catalanE:
	.long	333976413
	.long	1072517015
	.align 16
	.type	_ZN5boost4math21long_double_constantsL7catalanE, @object
	.size	_ZN5boost4math21long_double_constantsL7catalanE, 16
_ZN5boost4math21long_double_constantsL7catalanE:
	.long	1083893829
	.long	3934042271
	.long	16382
	.long	0
	.align 4
	.type	_ZN5boost4math15float_constantsL8glaisherE, @object
	.size	_ZN5boost4math15float_constantsL8glaisherE, 4
_ZN5boost4math15float_constantsL8glaisherE:
	.long	1067722386
	.align 8
	.type	_ZN5boost4math16double_constantsL8glaisherE, @object
	.size	_ZN5boost4math16double_constantsL8glaisherE, 8
_ZN5boost4math16double_constantsL8glaisherE:
	.long	1328535667
	.long	1072989394
	.align 16
	.type	_ZN5boost4math21long_double_constantsL8glaisherE, @object
	.size	_ZN5boost4math21long_double_constantsL8glaisherE, 16
_ZN5boost4math21long_double_constantsL8glaisherE:
	.long	2126747801
	.long	2753991289
	.long	16383
	.long	0
	.align 4
	.type	_ZN5boost4math15float_constantsL8khinchinE, @object
	.size	_ZN5boost4math15float_constantsL8khinchinE, 4
_ZN5boost4math15float_constantsL8khinchinE:
	.long	1076616818
	.align 8
	.type	_ZN5boost4math16double_constantsL8khinchinE, @object
	.size	_ZN5boost4math16double_constantsL8khinchinE, 8
_ZN5boost4math16double_constantsL8khinchinE:
	.long	1111256333
	.long	1074101198
	.align 16
	.type	_ZN5boost4math21long_double_constantsL8khinchinE, @object
	.size	_ZN5boost4math21long_double_constantsL8khinchinE, 16
_ZN5boost4math21long_double_constantsL8khinchinE:
	.long	3815271357
	.long	2883482129
	.long	16384
	.long	0
	.align 4
	.type	_ZN5boost4math15float_constantsL22extreme_value_skewnessE, @object
	.size	_ZN5boost4math15float_constantsL22extreme_value_skewnessE, 4
_ZN5boost4math15float_constantsL22extreme_value_skewnessE:
	.long	1066523822
	.align 8
	.type	_ZN5boost4math16double_constantsL22extreme_value_skewnessE, @object
	.size	_ZN5boost4math16double_constantsL22extreme_value_skewnessE, 8
_ZN5boost4math16double_constantsL22extreme_value_skewnessE:
	.long	3175292209
	.long	1072839573
	.align 16
	.type	_ZN5boost4math21long_double_constantsL22extreme_value_skewnessE, @object
	.size	_ZN5boost4math21long_double_constantsL22extreme_value_skewnessE, 16
_ZN5boost4math21long_double_constantsL22extreme_value_skewnessE:
	.long	417958417
	.long	2447158762
	.long	16383
	.long	0
	.align 4
	.type	_ZN5boost4math15float_constantsL17rayleigh_skewnessE, @object
	.size	_ZN5boost4math15float_constantsL17rayleigh_skewnessE, 4
_ZN5boost4math15float_constantsL17rayleigh_skewnessE:
	.long	1059164280
	.align 8
	.type	_ZN5boost4math16double_constantsL17rayleigh_skewnessE, @object
	.size	_ZN5boost4math16double_constantsL17rayleigh_skewnessE, 8
_ZN5boost4math16double_constantsL17rayleigh_skewnessE:
	.long	4201621764
	.long	1071919630
	.align 16
	.type	_ZN5boost4math21long_double_constantsL17rayleigh_skewnessE, @object
	.size	_ZN5boost4math21long_double_constantsL17rayleigh_skewnessE, 16
_ZN5boost4math21long_double_constantsL17rayleigh_skewnessE:
	.long	2101878388
	.long	2710599635
	.long	16382
	.long	0
	.align 4
	.type	_ZN5boost4math15float_constantsL17rayleigh_kurtosisE, @object
	.size	_ZN5boost4math15float_constantsL17rayleigh_kurtosisE, 4
_ZN5boost4math15float_constantsL17rayleigh_kurtosisE:
	.long	1078964107
	.align 8
	.type	_ZN5boost4math16double_constantsL17rayleigh_kurtosisE, @object
	.size	_ZN5boost4math16double_constantsL17rayleigh_kurtosisE, 8
_ZN5boost4math16double_constantsL17rayleigh_kurtosisE:
	.long	1628990559
	.long	1074394609
	.align 16
	.type	_ZN5boost4math21long_double_constantsL17rayleigh_kurtosisE, @object
	.size	_ZN5boost4math21long_double_constantsL17rayleigh_kurtosisE, 16
_ZN5boost4math21long_double_constantsL17rayleigh_kurtosisE:
	.long	3278043370
	.long	3484388104
	.long	16384
	.long	0
	.align 4
	.type	_ZN5boost4math15float_constantsL24rayleigh_kurtosis_excessE, @object
	.size	_ZN5boost4math15float_constantsL24rayleigh_kurtosis_excessE, 4
_ZN5boost4math15float_constantsL24rayleigh_kurtosis_excessE:
	.long	1048246449
	.align 8
	.type	_ZN5boost4math16double_constantsL24rayleigh_kurtosis_excessE, @object
	.size	_ZN5boost4math16double_constantsL24rayleigh_kurtosis_excessE, 8
_ZN5boost4math16double_constantsL24rayleigh_kurtosis_excessE:
	.long	294045170
	.long	1070554902
	.align 16
	.type	_ZN5boost4math21long_double_constantsL24rayleigh_kurtosis_excessE, @object
	.size	_ZN5boost4math21long_double_constantsL24rayleigh_kurtosis_excessE, 16
_ZN5boost4math21long_double_constantsL24rayleigh_kurtosis_excessE:
	.long	909086374
	.long	4210602124
	.long	16380
	.long	0
	.align 4
	.type	_ZN5boost4math15float_constantsL10two_div_piE, @object
	.size	_ZN5boost4math15float_constantsL10two_div_piE, 4
_ZN5boost4math15float_constantsL10two_div_piE:
	.long	1059256707
	.align 8
	.type	_ZN5boost4math16double_constantsL10two_div_piE, @object
	.size	_ZN5boost4math16double_constantsL10two_div_piE, 8
_ZN5boost4math16double_constantsL10two_div_piE:
	.long	1841940611
	.long	1071931184
	.align 16
	.type	_ZN5boost4math21long_double_constantsL10two_div_piE, @object
	.size	_ZN5boost4math21long_double_constantsL10two_div_piE, 16
_ZN5boost4math21long_double_constantsL10two_div_piE:
	.long	1313084714
	.long	2734261102
	.long	16382
	.long	0
	.align 4
	.type	_ZN5boost4math15float_constantsL15root_two_div_piE, @object
	.size	_ZN5boost4math15float_constantsL15root_two_div_piE, 4
_ZN5boost4math15float_constantsL15root_two_div_piE:
	.long	1061962282
	.align 8
	.type	_ZN5boost4math16double_constantsL15root_two_div_piE, @object
	.size	_ZN5boost4math16double_constantsL15root_two_div_piE, 8
_ZN5boost4math16double_constantsL15root_two_div_piE:
	.long	869545553
	.long	1072269381
	.align 16
	.type	_ZN5boost4math21long_double_constantsL15root_two_div_piE, @object
	.size	_ZN5boost4math21long_double_constantsL15root_two_div_piE, 16
_ZN5boost4math21long_double_constantsL15root_two_div_piE:
	.long	2712831080
	.long	3426888094
	.long	16382
	.long	0
	.section	.text._ZN5boost14multiprecision8backends15cpp_int_backendILj0ELj0ELNS0_16cpp_integer_typeE1ELNS0_18cpp_int_check_typeE0ESaIyEED2Ev,"axG",@progbits,_ZN5boost14multiprecision8backends15cpp_int_backendILj0ELj0ELNS0_16cpp_integer_typeE1ELNS0_18cpp_int_check_typeE0ESaIyEED5Ev,comdat
	.align 2
	.weak	_ZN5boost14multiprecision8backends15cpp_int_backendILj0ELj0ELNS0_16cpp_integer_typeE1ELNS0_18cpp_int_check_typeE0ESaIyEED2Ev
	.type	_ZN5boost14multiprecision8backends15cpp_int_backendILj0ELj0ELNS0_16cpp_integer_typeE1ELNS0_18cpp_int_check_typeE0ESaIyEED2Ev, @function
_ZN5boost14multiprecision8backends15cpp_int_backendILj0ELj0ELNS0_16cpp_integer_typeE1ELNS0_18cpp_int_check_typeE0ESaIyEED2Ev:
.LFB10284:
	.cfi_startproc
	endbr64
	pushq	%rbp
	.cfi_def_cfa_offset 16
	.cfi_offset 6, -16
	movq	%rsp, %rbp
	.cfi_def_cfa_register 6
	subq	$16, %rsp
	movq	%rdi, -8(%rbp)
	movq	-8(%rbp), %rax
	movq	%rax, %rdi
	call	_ZN5boost14multiprecision8backends12cpp_int_baseILj0ELj4294967295ELNS0_16cpp_integer_typeE1ELNS0_18cpp_int_check_typeE0ESaIyELb0EED2Ev
	nop
	leave
	.cfi_def_cfa 7, 8
	ret
	.cfi_endproc
.LFE10284:
	.size	_ZN5boost14multiprecision8backends15cpp_int_backendILj0ELj0ELNS0_16cpp_integer_typeE1ELNS0_18cpp_int_check_typeE0ESaIyEED2Ev, .-_ZN5boost14multiprecision8backends15cpp_int_backendILj0ELj0ELNS0_16cpp_integer_typeE1ELNS0_18cpp_int_check_typeE0ESaIyEED2Ev
	.weak	_ZN5boost14multiprecision8backends15cpp_int_backendILj0ELj0ELNS0_16cpp_integer_typeE1ELNS0_18cpp_int_check_typeE0ESaIyEED1Ev
	.set	_ZN5boost14multiprecision8backends15cpp_int_backendILj0ELj0ELNS0_16cpp_integer_typeE1ELNS0_18cpp_int_check_typeE0ESaIyEED1Ev,_ZN5boost14multiprecision8backends15cpp_int_backendILj0ELj0ELNS0_16cpp_integer_typeE1ELNS0_18cpp_int_check_typeE0ESaIyEED2Ev
	.section	.text._ZN5boost14multiprecision6numberINS0_8backends15cpp_int_backendILj0ELj0ELNS0_16cpp_integer_typeE1ELNS0_18cpp_int_check_typeE0ESaIyEEELNS0_26expression_template_optionE1EED2Ev,"axG",@progbits,_ZN5boost14multiprecision6numberINS0_8backends15cpp_int_backendILj0ELj0ELNS0_16cpp_integer_typeE1ELNS0_18cpp_int_check_typeE0ESaIyEEELNS0_26expression_template_optionE1EED5Ev,comdat
	.align 2
	.weak	_ZN5boost14multiprecision6numberINS0_8backends15cpp_int_backendILj0ELj0ELNS0_16cpp_integer_typeE1ELNS0_18cpp_int_check_typeE0ESaIyEEELNS0_26expression_template_optionE1EED2Ev
	.type	_ZN5boost14multiprecision6numberINS0_8backends15cpp_int_backendILj0ELj0ELNS0_16cpp_integer_typeE1ELNS0_18cpp_int_check_typeE0ESaIyEEELNS0_26expression_template_optionE1EED2Ev, @function
_ZN5boost14multiprecision6numberINS0_8backends15cpp_int_backendILj0ELj0ELNS0_16cpp_integer_typeE1ELNS0_18cpp_int_check_typeE0ESaIyEEELNS0_26expression_template_optionE1EED2Ev:
.LFB10286:
	.cfi_startproc
	endbr64
	pushq	%rbp
	.cfi_def_cfa_offset 16
	.cfi_offset 6, -16
	movq	%rsp, %rbp
	.cfi_def_cfa_register 6
	subq	$16, %rsp
	movq	%rdi, -8(%rbp)
	movq	-8(%rbp), %rax
	movq	%rax, %rdi
	call	_ZN5boost14multiprecision8backends15cpp_int_backendILj0ELj0ELNS0_16cpp_integer_typeE1ELNS0_18cpp_int_check_typeE0ESaIyEED1Ev
	nop
	leave
	.cfi_def_cfa 7, 8
	ret
	.cfi_endproc
.LFE10286:
	.size	_ZN5boost14multiprecision6numberINS0_8backends15cpp_int_backendILj0ELj0ELNS0_16cpp_integer_typeE1ELNS0_18cpp_int_check_typeE0ESaIyEEELNS0_26expression_template_optionE1EED2Ev, .-_ZN5boost14multiprecision6numberINS0_8backends15cpp_int_backendILj0ELj0ELNS0_16cpp_integer_typeE1ELNS0_18cpp_int_check_typeE0ESaIyEEELNS0_26expression_template_optionE1EED2Ev
	.weak	_ZN5boost14multiprecision6numberINS0_8backends15cpp_int_backendILj0ELj0ELNS0_16cpp_integer_typeE1ELNS0_18cpp_int_check_typeE0ESaIyEEELNS0_26expression_template_optionE1EED1Ev
	.set	_ZN5boost14multiprecision6numberINS0_8backends15cpp_int_backendILj0ELj0ELNS0_16cpp_integer_typeE1ELNS0_18cpp_int_check_typeE0ESaIyEEELNS0_26expression_template_optionE1EED1Ev,_ZN5boost14multiprecision6numberINS0_8backends15cpp_int_backendILj0ELj0ELNS0_16cpp_integer_typeE1ELNS0_18cpp_int_check_typeE0ESaIyEEELNS0_26expression_template_optionE1EED2Ev
	.section	.rodata
	.type	_ZStL10defer_lock, @object
	.size	_ZStL10defer_lock, 1
_ZStL10defer_lock:
	.zero	1
	.type	_ZStL11try_to_lock, @object
	.size	_ZStL11try_to_lock, 1
_ZStL11try_to_lock:
	.zero	1
	.type	_ZStL10adopt_lock, @object
	.size	_ZStL10adopt_lock, 1
_ZStL10adopt_lock:
	.zero	1
	.align 4
	.type	_ZNSt15regex_constantsL5icaseE, @object
	.size	_ZNSt15regex_constantsL5icaseE, 4
_ZNSt15regex_constantsL5icaseE:
	.long	1
	.align 4
	.type	_ZNSt15regex_constantsL6nosubsE, @object
	.size	_ZNSt15regex_constantsL6nosubsE, 4
_ZNSt15regex_constantsL6nosubsE:
	.long	2
	.align 4
	.type	_ZNSt15regex_constantsL8optimizeE, @object
	.size	_ZNSt15regex_constantsL8optimizeE, 4
_ZNSt15regex_constantsL8optimizeE:
	.long	4
	.align 4
	.type	_ZNSt15regex_constantsL7collateE, @object
	.size	_ZNSt15regex_constantsL7collateE, 4
_ZNSt15regex_constantsL7collateE:
	.long	8
	.align 4
	.type	_ZNSt15regex_constantsL10ECMAScriptE, @object
	.size	_ZNSt15regex_constantsL10ECMAScriptE, 4
_ZNSt15regex_constantsL10ECMAScriptE:
	.long	16
	.align 4
	.type	_ZNSt15regex_constantsL5basicE, @object
	.size	_ZNSt15regex_constantsL5basicE, 4
_ZNSt15regex_constantsL5basicE:
	.long	32
	.align 4
	.type	_ZNSt15regex_constantsL8extendedE, @object
	.size	_ZNSt15regex_constantsL8extendedE, 4
_ZNSt15regex_constantsL8extendedE:
	.long	64
	.align 4
	.type	_ZNSt15regex_constantsL3awkE, @object
	.size	_ZNSt15regex_constantsL3awkE, 4
_ZNSt15regex_constantsL3awkE:
	.long	128
	.align 4
	.type	_ZNSt15regex_constantsL4grepE, @object
	.size	_ZNSt15regex_constantsL4grepE, 4
_ZNSt15regex_constantsL4grepE:
	.long	256
	.align 4
	.type	_ZNSt15regex_constantsL5egrepE, @object
	.size	_ZNSt15regex_constantsL5egrepE, 4
_ZNSt15regex_constantsL5egrepE:
	.long	512
	.align 4
	.type	_ZNSt15regex_constantsL12__polynomialE, @object
	.size	_ZNSt15regex_constantsL12__polynomialE, 4
_ZNSt15regex_constantsL12__polynomialE:
	.long	1024
	.align 4
	.type	_ZNSt15regex_constantsL13match_defaultE, @object
	.size	_ZNSt15regex_constantsL13match_defaultE, 4
_ZNSt15regex_constantsL13match_defaultE:
	.zero	4
	.align 4
	.type	_ZNSt15regex_constantsL13match_not_bolE, @object
	.size	_ZNSt15regex_constantsL13match_not_bolE, 4
_ZNSt15regex_constantsL13match_not_bolE:
	.long	1
	.align 4
	.type	_ZNSt15regex_constantsL13match_not_eolE, @object
	.size	_ZNSt15regex_constantsL13match_not_eolE, 4
_ZNSt15regex_constantsL13match_not_eolE:
	.long	2
	.align 4
	.type	_ZNSt15regex_constantsL13match_not_bowE, @object
	.size	_ZNSt15regex_constantsL13match_not_bowE, 4
_ZNSt15regex_constantsL13match_not_bowE:
	.long	4
	.align 4
	.type	_ZNSt15regex_constantsL13match_not_eowE, @object
	.size	_ZNSt15regex_constantsL13match_not_eowE, 4
_ZNSt15regex_constantsL13match_not_eowE:
	.long	8
	.align 4
	.type	_ZNSt15regex_constantsL9match_anyE, @object
	.size	_ZNSt15regex_constantsL9match_anyE, 4
_ZNSt15regex_constantsL9match_anyE:
	.long	16
	.align 4
	.type	_ZNSt15regex_constantsL14match_not_nullE, @object
	.size	_ZNSt15regex_constantsL14match_not_nullE, 4
_ZNSt15regex_constantsL14match_not_nullE:
	.long	32
	.align 4
	.type	_ZNSt15regex_constantsL16match_continuousE, @object
	.size	_ZNSt15regex_constantsL16match_continuousE, 4
_ZNSt15regex_constantsL16match_continuousE:
	.long	64
	.align 4
	.type	_ZNSt15regex_constantsL16match_prev_availE, @object
	.size	_ZNSt15regex_constantsL16match_prev_availE, 4
_ZNSt15regex_constantsL16match_prev_availE:
	.long	128
	.align 4
	.type	_ZNSt15regex_constantsL14format_defaultE, @object
	.size	_ZNSt15regex_constantsL14format_defaultE, 4
_ZNSt15regex_constantsL14format_defaultE:
	.zero	4
	.align 4
	.type	_ZNSt15regex_constantsL10format_sedE, @object
	.size	_ZNSt15regex_constantsL10format_sedE, 4
_ZNSt15regex_constantsL10format_sedE:
	.long	256
	.align 4
	.type	_ZNSt15regex_constantsL14format_no_copyE, @object
	.size	_ZNSt15regex_constantsL14format_no_copyE, 4
_ZNSt15regex_constantsL14format_no_copyE:
	.long	512
	.align 4
	.type	_ZNSt15regex_constantsL17format_first_onlyE, @object
	.size	_ZNSt15regex_constantsL17format_first_onlyE, 4
_ZNSt15regex_constantsL17format_first_onlyE:
	.long	1024
	.align 4
	.type	_ZNSt15regex_constantsL13error_collateE, @object
	.size	_ZNSt15regex_constantsL13error_collateE, 4
_ZNSt15regex_constantsL13error_collateE:
	.zero	4
	.align 4
	.type	_ZNSt15regex_constantsL11error_ctypeE, @object
	.size	_ZNSt15regex_constantsL11error_ctypeE, 4
_ZNSt15regex_constantsL11error_ctypeE:
	.long	1
	.align 4
	.type	_ZNSt15regex_constantsL12error_escapeE, @object
	.size	_ZNSt15regex_constantsL12error_escapeE, 4
_ZNSt15regex_constantsL12error_escapeE:
	.long	2
	.align 4
	.type	_ZNSt15regex_constantsL13error_backrefE, @object
	.size	_ZNSt15regex_constantsL13error_backrefE, 4
_ZNSt15regex_constantsL13error_backrefE:
	.long	3
	.align 4
	.type	_ZNSt15regex_constantsL11error_brackE, @object
	.size	_ZNSt15regex_constantsL11error_brackE, 4
_ZNSt15regex_constantsL11error_brackE:
	.long	4
	.align 4
	.type	_ZNSt15regex_constantsL11error_parenE, @object
	.size	_ZNSt15regex_constantsL11error_parenE, 4
_ZNSt15regex_constantsL11error_parenE:
	.long	5
	.align 4
	.type	_ZNSt15regex_constantsL11error_braceE, @object
	.size	_ZNSt15regex_constantsL11error_braceE, 4
_ZNSt15regex_constantsL11error_braceE:
	.long	6
	.align 4
	.type	_ZNSt15regex_constantsL14error_badbraceE, @object
	.size	_ZNSt15regex_constantsL14error_badbraceE, 4
_ZNSt15regex_constantsL14error_badbraceE:
	.long	7
	.align 4
	.type	_ZNSt15regex_constantsL11error_rangeE, @object
	.size	_ZNSt15regex_constantsL11error_rangeE, 4
_ZNSt15regex_constantsL11error_rangeE:
	.long	8
	.align 4
	.type	_ZNSt15regex_constantsL11error_spaceE, @object
	.size	_ZNSt15regex_constantsL11error_spaceE, 4
_ZNSt15regex_constantsL11error_spaceE:
	.long	9
	.align 4
	.type	_ZNSt15regex_constantsL15error_badrepeatE, @object
	.size	_ZNSt15regex_constantsL15error_badrepeatE, 4
_ZNSt15regex_constantsL15error_badrepeatE:
	.long	10
	.align 4
	.type	_ZNSt15regex_constantsL16error_complexityE, @object
	.size	_ZNSt15regex_constantsL16error_complexityE, 4
_ZNSt15regex_constantsL16error_complexityE:
	.long	11
	.align 4
	.type	_ZNSt15regex_constantsL11error_stackE, @object
	.size	_ZNSt15regex_constantsL11error_stackE, 4
_ZNSt15regex_constantsL11error_stackE:
	.long	12
	.align 8
	.type	_ZNSt8__detailL19_S_invalid_state_idE, @object
	.size	_ZNSt8__detailL19_S_invalid_state_idE, 8
_ZNSt8__detailL19_S_invalid_state_idE:
	.quad	-1
	.section	.text._ZSt3minImERKT_S2_S2_,"axG",@progbits,_ZSt3minImERKT_S2_S2_,comdat
	.weak	_ZSt3minImERKT_S2_S2_
	.type	_ZSt3minImERKT_S2_S2_, @function
_ZSt3minImERKT_S2_S2_:
.LFB12820:
	.cfi_startproc
	endbr64
	pushq	%rbp
	.cfi_def_cfa_offset 16
	.cfi_offset 6, -16
	movq	%rsp, %rbp
	.cfi_def_cfa_register 6
	movq	%rdi, -8(%rbp)
	movq	%rsi, -16(%rbp)
	movq	-16(%rbp), %rax
	movq	(%rax), %rdx
	movq	-8(%rbp), %rax
	movq	(%rax), %rax
	cmpq	%rax, %rdx
	jnb	.L47
	movq	-16(%rbp), %rax
	jmp	.L48
.L47:
	movq	-8(%rbp), %rax
.L48:
	popq	%rbp
	.cfi_def_cfa 7, 8
	ret
	.cfi_endproc
.LFE12820:
	.size	_ZSt3minImERKT_S2_S2_, .-_ZSt3minImERKT_S2_S2_
	.section	.rodata
	.align 4
	.type	_ZL8MESSAGES, @object
	.size	_ZL8MESSAGES, 4
_ZL8MESSAGES:
	.long	10
	.section	.text._Z16GetNumberOfCoresv,"axG",@progbits,_Z16GetNumberOfCoresv,comdat
	.weak	_Z16GetNumberOfCoresv
	.type	_Z16GetNumberOfCoresv, @function
_Z16GetNumberOfCoresv:
.LFB13350:
	.cfi_startproc
	endbr64
	pushq	%rbp
	.cfi_def_cfa_offset 16
	.cfi_offset 6, -16
	movq	%rsp, %rbp
	.cfi_def_cfa_register 6
	call	_ZNSt6thread20hardware_concurrencyEv@PLT
	popq	%rbp
	.cfi_def_cfa 7, 8
	ret
	.cfi_endproc
.LFE13350:
	.size	_Z16GetNumberOfCoresv, .-_Z16GetNumberOfCoresv
	.section	.rodata
	.align 8
.LC0:
	.string	"Sequential Time : %dms\nParallel Time : %dms\nCores Used: %d\nMessages : %d\nSpeed Up factor : %.3f\n\n\n"
	.section	.text._ZN12Benchmarkers11PrintParamsEv,"axG",@progbits,_ZN12Benchmarkers11PrintParamsEv,comdat
	.align 2
	.weak	_ZN12Benchmarkers11PrintParamsEv
	.type	_ZN12Benchmarkers11PrintParamsEv, @function
_ZN12Benchmarkers11PrintParamsEv:
.LFB13351:
	.cfi_startproc
	endbr64
	pushq	%rbp
	.cfi_def_cfa_offset 16
	.cfi_offset 6, -16
	movq	%rsp, %rbp
	.cfi_def_cfa_register 6
	subq	$16, %rsp
	movq	%rdi, -8(%rbp)
	movq	-8(%rbp), %rax
	movl	(%rax), %eax
	cvtsi2ssl	%eax, %xmm0
	movq	-8(%rbp), %rax
	movl	4(%rax), %eax
	cvtsi2ssl	%eax, %xmm1
	divss	%xmm1, %xmm0
	movq	-8(%rbp), %rax
	movss	%xmm0, 12(%rax)
	call	_Z16GetNumberOfCoresv
	movq	-8(%rbp), %rdx
	movl	%eax, 8(%rdx)
	movq	-8(%rbp), %rax
	movss	12(%rax), %xmm0
	cvtss2sd	%xmm0, %xmm0
	movq	-8(%rbp), %rax
	movl	8(%rax), %ecx
	movq	-8(%rbp), %rax
	movl	4(%rax), %edx
	movq	-8(%rbp), %rax
	movl	(%rax), %eax
	movl	$10, %r8d
	movl	%eax, %esi
	leaq	.LC0(%rip), %rdi
	movl	$1, %eax
	call	printf@PLT
	nop
	leave
	.cfi_def_cfa 7, 8
	ret
	.cfi_endproc
.LFE13351:
	.size	_ZN12Benchmarkers11PrintParamsEv, .-_ZN12Benchmarkers11PrintParamsEv
	.section	.text._ZNSt12_Vector_baseINSt7__cxx1112basic_stringIcSt11char_traitsIcESaIcEEESaIS5_EE12_Vector_implD2Ev,"axG",@progbits,_ZNSt12_Vector_baseINSt7__cxx1112basic_stringIcSt11char_traitsIcESaIcEEESaIS5_EE12_Vector_implD5Ev,comdat
	.align 2
	.weak	_ZNSt12_Vector_baseINSt7__cxx1112basic_stringIcSt11char_traitsIcESaIcEEESaIS5_EE12_Vector_implD2Ev
	.type	_ZNSt12_Vector_baseINSt7__cxx1112basic_stringIcSt11char_traitsIcESaIcEEESaIS5_EE12_Vector_implD2Ev, @function
_ZNSt12_Vector_baseINSt7__cxx1112basic_stringIcSt11char_traitsIcESaIcEEESaIS5_EE12_Vector_implD2Ev:
.LFB13356:
	.cfi_startproc
	endbr64
	pushq	%rbp
	.cfi_def_cfa_offset 16
	.cfi_offset 6, -16
	movq	%rsp, %rbp
	.cfi_def_cfa_register 6
	subq	$16, %rsp
	movq	%rdi, -8(%rbp)
	movq	-8(%rbp), %rax
	movq	%rax, %rdi
	call	_ZNSaINSt7__cxx1112basic_stringIcSt11char_traitsIcESaIcEEEED2Ev
	nop
	leave
	.cfi_def_cfa 7, 8
	ret
	.cfi_endproc
.LFE13356:
	.size	_ZNSt12_Vector_baseINSt7__cxx1112basic_stringIcSt11char_traitsIcESaIcEEESaIS5_EE12_Vector_implD2Ev, .-_ZNSt12_Vector_baseINSt7__cxx1112basic_stringIcSt11char_traitsIcESaIcEEESaIS5_EE12_Vector_implD2Ev
	.weak	_ZNSt12_Vector_baseINSt7__cxx1112basic_stringIcSt11char_traitsIcESaIcEEESaIS5_EE12_Vector_implD1Ev
	.set	_ZNSt12_Vector_baseINSt7__cxx1112basic_stringIcSt11char_traitsIcESaIcEEESaIS5_EE12_Vector_implD1Ev,_ZNSt12_Vector_baseINSt7__cxx1112basic_stringIcSt11char_traitsIcESaIcEEESaIS5_EE12_Vector_implD2Ev
	.section	.text._ZNSt12_Vector_baseINSt7__cxx1112basic_stringIcSt11char_traitsIcESaIcEEESaIS5_EEC2Ev,"axG",@progbits,_ZNSt12_Vector_baseINSt7__cxx1112basic_stringIcSt11char_traitsIcESaIcEEESaIS5_EEC5Ev,comdat
	.align 2
	.weak	_ZNSt12_Vector_baseINSt7__cxx1112basic_stringIcSt11char_traitsIcESaIcEEESaIS5_EEC2Ev
	.type	_ZNSt12_Vector_baseINSt7__cxx1112basic_stringIcSt11char_traitsIcESaIcEEESaIS5_EEC2Ev, @function
_ZNSt12_Vector_baseINSt7__cxx1112basic_stringIcSt11char_traitsIcESaIcEEESaIS5_EEC2Ev:
.LFB13358:
	.cfi_startproc
	endbr64
	pushq	%rbp
	.cfi_def_cfa_offset 16
	.cfi_offset 6, -16
	movq	%rsp, %rbp
	.cfi_def_cfa_register 6
	subq	$16, %rsp
	movq	%rdi, -8(%rbp)
	movq	-8(%rbp), %rax
	movq	%rax, %rdi
	call	_ZNSt12_Vector_baseINSt7__cxx1112basic_stringIcSt11char_traitsIcESaIcEEESaIS5_EE12_Vector_implC1Ev
	nop
	leave
	.cfi_def_cfa 7, 8
	ret
	.cfi_endproc
.LFE13358:
	.size	_ZNSt12_Vector_baseINSt7__cxx1112basic_stringIcSt11char_traitsIcESaIcEEESaIS5_EEC2Ev, .-_ZNSt12_Vector_baseINSt7__cxx1112basic_stringIcSt11char_traitsIcESaIcEEESaIS5_EEC2Ev
	.weak	_ZNSt12_Vector_baseINSt7__cxx1112basic_stringIcSt11char_traitsIcESaIcEEESaIS5_EEC1Ev
	.set	_ZNSt12_Vector_baseINSt7__cxx1112basic_stringIcSt11char_traitsIcESaIcEEESaIS5_EEC1Ev,_ZNSt12_Vector_baseINSt7__cxx1112basic_stringIcSt11char_traitsIcESaIcEEESaIS5_EEC2Ev
	.section	.text._ZNSt6vectorINSt7__cxx1112basic_stringIcSt11char_traitsIcESaIcEEESaIS5_EEC2Ev,"axG",@progbits,_ZNSt6vectorINSt7__cxx1112basic_stringIcSt11char_traitsIcESaIcEEESaIS5_EEC5Ev,comdat
	.align 2
	.weak	_ZNSt6vectorINSt7__cxx1112basic_stringIcSt11char_traitsIcESaIcEEESaIS5_EEC2Ev
	.type	_ZNSt6vectorINSt7__cxx1112basic_stringIcSt11char_traitsIcESaIcEEESaIS5_EEC2Ev, @function
_ZNSt6vectorINSt7__cxx1112basic_stringIcSt11char_traitsIcESaIcEEESaIS5_EEC2Ev:
.LFB13360:
	.cfi_startproc
	endbr64
	pushq	%rbp
	.cfi_def_cfa_offset 16
	.cfi_offset 6, -16
	movq	%rsp, %rbp
	.cfi_def_cfa_register 6
	subq	$16, %rsp
	movq	%rdi, -8(%rbp)
	movq	-8(%rbp), %rax
	movq	%rax, %rdi
	call	_ZNSt12_Vector_baseINSt7__cxx1112basic_stringIcSt11char_traitsIcESaIcEEESaIS5_EEC2Ev
	nop
	leave
	.cfi_def_cfa 7, 8
	ret
	.cfi_endproc
.LFE13360:
	.size	_ZNSt6vectorINSt7__cxx1112basic_stringIcSt11char_traitsIcESaIcEEESaIS5_EEC2Ev, .-_ZNSt6vectorINSt7__cxx1112basic_stringIcSt11char_traitsIcESaIcEEESaIS5_EEC2Ev
	.weak	_ZNSt6vectorINSt7__cxx1112basic_stringIcSt11char_traitsIcESaIcEEESaIS5_EEC1Ev
	.set	_ZNSt6vectorINSt7__cxx1112basic_stringIcSt11char_traitsIcESaIcEEESaIS5_EEC1Ev,_ZNSt6vectorINSt7__cxx1112basic_stringIcSt11char_traitsIcESaIcEEESaIS5_EEC2Ev
	.section	.text._ZNSt12__shared_ptrI12BenchmarkersLN9__gnu_cxx12_Lock_policyE2EED2Ev,"axG",@progbits,_ZNSt12__shared_ptrI12BenchmarkersLN9__gnu_cxx12_Lock_policyE2EED5Ev,comdat
	.align 2
	.weak	_ZNSt12__shared_ptrI12BenchmarkersLN9__gnu_cxx12_Lock_policyE2EED2Ev
	.type	_ZNSt12__shared_ptrI12BenchmarkersLN9__gnu_cxx12_Lock_policyE2EED2Ev, @function
_ZNSt12__shared_ptrI12BenchmarkersLN9__gnu_cxx12_Lock_policyE2EED2Ev:
.LFB13364:
	.cfi_startproc
	endbr64
	pushq	%rbp
	.cfi_def_cfa_offset 16
	.cfi_offset 6, -16
	movq	%rsp, %rbp
	.cfi_def_cfa_register 6
	subq	$16, %rsp
	movq	%rdi, -8(%rbp)
	movq	-8(%rbp), %rax
	addq	$8, %rax
	movq	%rax, %rdi
	call	_ZNSt14__shared_countILN9__gnu_cxx12_Lock_policyE2EED1Ev
	nop
	leave
	.cfi_def_cfa 7, 8
	ret
	.cfi_endproc
.LFE13364:
	.size	_ZNSt12__shared_ptrI12BenchmarkersLN9__gnu_cxx12_Lock_policyE2EED2Ev, .-_ZNSt12__shared_ptrI12BenchmarkersLN9__gnu_cxx12_Lock_policyE2EED2Ev
	.weak	_ZNSt12__shared_ptrI12BenchmarkersLN9__gnu_cxx12_Lock_policyE2EED1Ev
	.set	_ZNSt12__shared_ptrI12BenchmarkersLN9__gnu_cxx12_Lock_policyE2EED1Ev,_ZNSt12__shared_ptrI12BenchmarkersLN9__gnu_cxx12_Lock_policyE2EED2Ev
	.section	.text._ZNSt10shared_ptrI12BenchmarkersED2Ev,"axG",@progbits,_ZNSt10shared_ptrI12BenchmarkersED5Ev,comdat
	.align 2
	.weak	_ZNSt10shared_ptrI12BenchmarkersED2Ev
	.type	_ZNSt10shared_ptrI12BenchmarkersED2Ev, @function
_ZNSt10shared_ptrI12BenchmarkersED2Ev:
.LFB13366:
	.cfi_startproc
	endbr64
	pushq	%rbp
	.cfi_def_cfa_offset 16
	.cfi_offset 6, -16
	movq	%rsp, %rbp
	.cfi_def_cfa_register 6
	subq	$16, %rsp
	movq	%rdi, -8(%rbp)
	movq	-8(%rbp), %rax
	movq	%rax, %rdi
	call	_ZNSt12__shared_ptrI12BenchmarkersLN9__gnu_cxx12_Lock_policyE2EED2Ev
	nop
	leave
	.cfi_def_cfa 7, 8
	ret
	.cfi_endproc
.LFE13366:
	.size	_ZNSt10shared_ptrI12BenchmarkersED2Ev, .-_ZNSt10shared_ptrI12BenchmarkersED2Ev
	.weak	_ZNSt10shared_ptrI12BenchmarkersED1Ev
	.set	_ZNSt10shared_ptrI12BenchmarkersED1Ev,_ZNSt10shared_ptrI12BenchmarkersED2Ev
	.section	.text._ZNSt12__shared_ptrI12RsaEncrytionLN9__gnu_cxx12_Lock_policyE2EED2Ev,"axG",@progbits,_ZNSt12__shared_ptrI12RsaEncrytionLN9__gnu_cxx12_Lock_policyE2EED5Ev,comdat
	.align 2
	.weak	_ZNSt12__shared_ptrI12RsaEncrytionLN9__gnu_cxx12_Lock_policyE2EED2Ev
	.type	_ZNSt12__shared_ptrI12RsaEncrytionLN9__gnu_cxx12_Lock_policyE2EED2Ev, @function
_ZNSt12__shared_ptrI12RsaEncrytionLN9__gnu_cxx12_Lock_policyE2EED2Ev:
.LFB13370:
	.cfi_startproc
	endbr64
	pushq	%rbp
	.cfi_def_cfa_offset 16
	.cfi_offset 6, -16
	movq	%rsp, %rbp
	.cfi_def_cfa_register 6
	subq	$16, %rsp
	movq	%rdi, -8(%rbp)
	movq	-8(%rbp), %rax
	addq	$8, %rax
	movq	%rax, %rdi
	call	_ZNSt14__shared_countILN9__gnu_cxx12_Lock_policyE2EED1Ev
	nop
	leave
	.cfi_def_cfa 7, 8
	ret
	.cfi_endproc
.LFE13370:
	.size	_ZNSt12__shared_ptrI12RsaEncrytionLN9__gnu_cxx12_Lock_policyE2EED2Ev, .-_ZNSt12__shared_ptrI12RsaEncrytionLN9__gnu_cxx12_Lock_policyE2EED2Ev
	.weak	_ZNSt12__shared_ptrI12RsaEncrytionLN9__gnu_cxx12_Lock_policyE2EED1Ev
	.set	_ZNSt12__shared_ptrI12RsaEncrytionLN9__gnu_cxx12_Lock_policyE2EED1Ev,_ZNSt12__shared_ptrI12RsaEncrytionLN9__gnu_cxx12_Lock_policyE2EED2Ev
	.section	.text._ZNSt10shared_ptrI12RsaEncrytionED2Ev,"axG",@progbits,_ZNSt10shared_ptrI12RsaEncrytionED5Ev,comdat
	.align 2
	.weak	_ZNSt10shared_ptrI12RsaEncrytionED2Ev
	.type	_ZNSt10shared_ptrI12RsaEncrytionED2Ev, @function
_ZNSt10shared_ptrI12RsaEncrytionED2Ev:
.LFB13372:
	.cfi_startproc
	endbr64
	pushq	%rbp
	.cfi_def_cfa_offset 16
	.cfi_offset 6, -16
	movq	%rsp, %rbp
	.cfi_def_cfa_register 6
	subq	$16, %rsp
	movq	%rdi, -8(%rbp)
	movq	-8(%rbp), %rax
	movq	%rax, %rdi
	call	_ZNSt12__shared_ptrI12RsaEncrytionLN9__gnu_cxx12_Lock_policyE2EED2Ev
	nop
	leave
	.cfi_def_cfa 7, 8
	ret
	.cfi_endproc
.LFE13372:
	.size	_ZNSt10shared_ptrI12RsaEncrytionED2Ev, .-_ZNSt10shared_ptrI12RsaEncrytionED2Ev
	.weak	_ZNSt10shared_ptrI12RsaEncrytionED1Ev
	.set	_ZNSt10shared_ptrI12RsaEncrytionED1Ev,_ZNSt10shared_ptrI12RsaEncrytionED2Ev
	.section	.text._ZNKSt6chrono8durationIlSt5ratioILl1ELl1000EEE5countEv,"axG",@progbits,_ZNKSt6chrono8durationIlSt5ratioILl1ELl1000EEE5countEv,comdat
	.align 2
	.weak	_ZNKSt6chrono8durationIlSt5ratioILl1ELl1000EEE5countEv
	.type	_ZNKSt6chrono8durationIlSt5ratioILl1ELl1000EEE5countEv, @function
_ZNKSt6chrono8durationIlSt5ratioILl1ELl1000EEE5countEv:
.LFB13374:
	.cfi_startproc
	endbr64
	pushq	%rbp
	.cfi_def_cfa_offset 16
	.cfi_offset 6, -16
	movq	%rsp, %rbp
	.cfi_def_cfa_register 6
	movq	%rdi, -8(%rbp)
	movq	-8(%rbp), %rax
	movq	(%rax), %rax
	popq	%rbp
	.cfi_def_cfa 7, 8
	ret
	.cfi_endproc
.LFE13374:
	.size	_ZNKSt6chrono8durationIlSt5ratioILl1ELl1000EEE5countEv, .-_ZNKSt6chrono8durationIlSt5ratioILl1ELl1000EEE5countEv
	.section	.text._ZNSt6chrono13duration_castINS_8durationIlSt5ratioILl1ELl1000EEEElS2_ILl1ELl1000000000EEEENSt9enable_ifIXsrNS_13__is_durationIT_EE5valueES8_E4typeERKNS1_IT0_T1_EE,"axG",@progbits,_ZNSt6chrono13duration_castINS_8durationIlSt5ratioILl1ELl1000EEEElS2_ILl1ELl1000000000EEEENSt9enable_ifIXsrNS_13__is_durationIT_EE5valueES8_E4typeERKNS1_IT0_T1_EE,comdat
	.weak	_ZNSt6chrono13duration_castINS_8durationIlSt5ratioILl1ELl1000EEEElS2_ILl1ELl1000000000EEEENSt9enable_ifIXsrNS_13__is_durationIT_EE5valueES8_E4typeERKNS1_IT0_T1_EE
	.type	_ZNSt6chrono13duration_castINS_8durationIlSt5ratioILl1ELl1000EEEElS2_ILl1ELl1000000000EEEENSt9enable_ifIXsrNS_13__is_durationIT_EE5valueES8_E4typeERKNS1_IT0_T1_EE, @function
_ZNSt6chrono13duration_castINS_8durationIlSt5ratioILl1ELl1000EEEElS2_ILl1ELl1000000000EEEENSt9enable_ifIXsrNS_13__is_durationIT_EE5valueES8_E4typeERKNS1_IT0_T1_EE:
.LFB13375:
	.cfi_startproc
	endbr64
	pushq	%rbp
	.cfi_def_cfa_offset 16
	.cfi_offset 6, -16
	movq	%rsp, %rbp
	.cfi_def_cfa_register 6
	subq	$16, %rsp
	movq	%rdi, -8(%rbp)
	movq	-8(%rbp), %rax
	movq	%rax, %rdi
	call	_ZNSt6chrono20__duration_cast_implINS_8durationIlSt5ratioILl1ELl1000EEEES2_ILl1ELl1000000EElLb1ELb0EE6__castIlS2_ILl1ELl1000000000EEEES4_RKNS1_IT_T0_EE
	leave
	.cfi_def_cfa 7, 8
	ret
	.cfi_endproc
.LFE13375:
	.size	_ZNSt6chrono13duration_castINS_8durationIlSt5ratioILl1ELl1000EEEElS2_ILl1ELl1000000000EEEENSt9enable_ifIXsrNS_13__is_durationIT_EE5valueES8_E4typeERKNS1_IT0_T1_EE, .-_ZNSt6chrono13duration_castINS_8durationIlSt5ratioILl1ELl1000EEEElS2_ILl1ELl1000000000EEEENSt9enable_ifIXsrNS_13__is_durationIT_EE5valueES8_E4typeERKNS1_IT0_T1_EE
	.section	.text._ZNSt6chronomiINS_3_V212steady_clockENS_8durationIlSt5ratioILl1ELl1000000000EEEES6_EENSt11common_typeIJT0_T1_EE4typeERKNS_10time_pointIT_S8_EERKNSC_ISD_S9_EE,"axG",@progbits,_ZNSt6chronomiINS_3_V212steady_clockENS_8durationIlSt5ratioILl1ELl1000000000EEEES6_EENSt11common_typeIJT0_T1_EE4typeERKNS_10time_pointIT_S8_EERKNSC_ISD_S9_EE,comdat
	.weak	_ZNSt6chronomiINS_3_V212steady_clockENS_8durationIlSt5ratioILl1ELl1000000000EEEES6_EENSt11common_typeIJT0_T1_EE4typeERKNS_10time_pointIT_S8_EERKNSC_ISD_S9_EE
	.type	_ZNSt6chronomiINS_3_V212steady_clockENS_8durationIlSt5ratioILl1ELl1000000000EEEES6_EENSt11common_typeIJT0_T1_EE4typeERKNS_10time_pointIT_S8_EERKNSC_ISD_S9_EE, @function
_ZNSt6chronomiINS_3_V212steady_clockENS_8durationIlSt5ratioILl1ELl1000000000EEEES6_EENSt11common_typeIJT0_T1_EE4typeERKNS_10time_pointIT_S8_EERKNSC_ISD_S9_EE:
.LFB13376:
	.cfi_startproc
	endbr64
	pushq	%rbp
	.cfi_def_cfa_offset 16
	.cfi_offset 6, -16
	movq	%rsp, %rbp
	.cfi_def_cfa_register 6
	subq	$48, %rsp
	movq	%rdi, -40(%rbp)
	movq	%rsi, -48(%rbp)
	movq	%fs:40, %rax
	movq	%rax, -8(%rbp)
	xorl	%eax, %eax
	movq	-48(%rbp), %rax
	movq	%rax, %rdi
	call	_ZNKSt6chrono10time_pointINS_3_V212steady_clockENS_8durationIlSt5ratioILl1ELl1000000000EEEEE16time_since_epochEv
	movq	%rax, -16(%rbp)
	movq	-40(%rbp), %rax
	movq	%rax, %rdi
	call	_ZNKSt6chrono10time_pointINS_3_V212steady_clockENS_8durationIlSt5ratioILl1ELl1000000000EEEEE16time_since_epochEv
	movq	%rax, -24(%rbp)
	leaq	-16(%rbp), %rdx
	leaq	-24(%rbp), %rax
	movq	%rdx, %rsi
	movq	%rax, %rdi
	call	_ZNSt6chronomiIlSt5ratioILl1ELl1000000000EElS2_EENSt11common_typeIJNS_8durationIT_T0_EENS4_IT1_T2_EEEE4typeERKS7_RKSA_
	movq	-8(%rbp), %rcx
	xorq	%fs:40, %rcx
	je	.L65
	call	__stack_chk_fail@PLT
.L65:
	leave
	.cfi_def_cfa 7, 8
	ret
	.cfi_endproc
.LFE13376:
	.size	_ZNSt6chronomiINS_3_V212steady_clockENS_8durationIlSt5ratioILl1ELl1000000000EEEES6_EENSt11common_typeIJT0_T1_EE4typeERKNS_10time_pointIT_S8_EERKNSC_ISD_S9_EE, .-_ZNSt6chronomiINS_3_V212steady_clockENS_8durationIlSt5ratioILl1ELl1000000000EEEES6_EENSt11common_typeIJT0_T1_EE4typeERKNS_10time_pointIT_S8_EERKNSC_ISD_S9_EE
	.section	.text._ZNSt6chronomiIlSt5ratioILl1ELl1000000000EElS2_EENSt11common_typeIJNS_8durationIT_T0_EENS4_IT1_T2_EEEE4typeERKS7_RKSA_,"axG",@progbits,_ZNSt6chronomiIlSt5ratioILl1ELl1000000000EElS2_EENSt11common_typeIJNS_8durationIT_T0_EENS4_IT1_T2_EEEE4typeERKS7_RKSA_,comdat
	.weak	_ZNSt6chronomiIlSt5ratioILl1ELl1000000000EElS2_EENSt11common_typeIJNS_8durationIT_T0_EENS4_IT1_T2_EEEE4typeERKS7_RKSA_
	.type	_ZNSt6chronomiIlSt5ratioILl1ELl1000000000EElS2_EENSt11common_typeIJNS_8durationIT_T0_EENS4_IT1_T2_EEEE4typeERKS7_RKSA_, @function
_ZNSt6chronomiIlSt5ratioILl1ELl1000000000EElS2_EENSt11common_typeIJNS_8durationIT_T0_EENS4_IT1_T2_EEEE4typeERKS7_RKSA_:
.LFB13377:
	.cfi_startproc
	endbr64
	pushq	%rbp
	.cfi_def_cfa_offset 16
	.cfi_offset 6, -16
	movq	%rsp, %rbp
	.cfi_def_cfa_register 6
	pushq	%rbx
	subq	$72, %rsp
	.cfi_offset 3, -24
	movq	%rdi, -72(%rbp)
	movq	%rsi, -80(%rbp)
	movq	%fs:40, %rax
	movq	%rax, -24(%rbp)
	xorl	%eax, %eax
	movq	-72(%rbp), %rax
	movq	(%rax), %rax
	movq	%rax, -56(%rbp)
	leaq	-56(%rbp), %rax
	movq	%rax, %rdi
	call	_ZNKSt6chrono8durationIlSt5ratioILl1ELl1000000000EEE5countEv
	movq	%rax, %rbx
	movq	-80(%rbp), %rax
	movq	(%rax), %rax
	movq	%rax, -48(%rbp)
	leaq	-48(%rbp), %rax
	movq	%rax, %rdi
	call	_ZNKSt6chrono8durationIlSt5ratioILl1ELl1000000000EEE5countEv
	subq	%rax, %rbx
	movq	%rbx, %rax
	movq	%rax, -40(%rbp)
	leaq	-40(%rbp), %rdx
	leaq	-32(%rbp), %rax
	movq	%rdx, %rsi
	movq	%rax, %rdi
	call	_ZNSt6chrono8durationIlSt5ratioILl1ELl1000000000EEEC1IlvEERKT_
	movq	-32(%rbp), %rax
	movq	-24(%rbp), %rcx
	xorq	%fs:40, %rcx
	je	.L68
	call	__stack_chk_fail@PLT
.L68:
	addq	$72, %rsp
	popq	%rbx
	popq	%rbp
	.cfi_def_cfa 7, 8
	ret
	.cfi_endproc
.LFE13377:
	.size	_ZNSt6chronomiIlSt5ratioILl1ELl1000000000EElS2_EENSt11common_typeIJNS_8durationIT_T0_EENS4_IT1_T2_EEEE4typeERKS7_RKSA_, .-_ZNSt6chronomiIlSt5ratioILl1ELl1000000000EElS2_EENSt11common_typeIJNS_8durationIT_T0_EENS4_IT1_T2_EEEE4typeERKS7_RKSA_
	.section	.text._ZNKSt6chrono10time_pointINS_3_V212steady_clockENS_8durationIlSt5ratioILl1ELl1000000000EEEEE16time_since_epochEv,"axG",@progbits,_ZNKSt6chrono10time_pointINS_3_V212steady_clockENS_8durationIlSt5ratioILl1ELl1000000000EEEEE16time_since_epochEv,comdat
	.align 2
	.weak	_ZNKSt6chrono10time_pointINS_3_V212steady_clockENS_8durationIlSt5ratioILl1ELl1000000000EEEEE16time_since_epochEv
	.type	_ZNKSt6chrono10time_pointINS_3_V212steady_clockENS_8durationIlSt5ratioILl1ELl1000000000EEEEE16time_since_epochEv, @function
_ZNKSt6chrono10time_pointINS_3_V212steady_clockENS_8durationIlSt5ratioILl1ELl1000000000EEEEE16time_since_epochEv:
.LFB13378:
	.cfi_startproc
	endbr64
	pushq	%rbp
	.cfi_def_cfa_offset 16
	.cfi_offset 6, -16
	movq	%rsp, %rbp
	.cfi_def_cfa_register 6
	movq	%rdi, -8(%rbp)
	movq	-8(%rbp), %rax
	movq	(%rax), %rax
	popq	%rbp
	.cfi_def_cfa 7, 8
	ret
	.cfi_endproc
.LFE13378:
	.size	_ZNKSt6chrono10time_pointINS_3_V212steady_clockENS_8durationIlSt5ratioILl1ELl1000000000EEEEE16time_since_epochEv, .-_ZNKSt6chrono10time_pointINS_3_V212steady_clockENS_8durationIlSt5ratioILl1ELl1000000000EEEEE16time_since_epochEv
	.section	.rodata
.LC1:
	.string	"sample_text.txt"
.LC2:
	.string	"Total Message Length = "
	.align 8
.LC3:
	.string	"Sequential Encryption Done................................\n"
	.align 8
.LC4:
	.string	"Parallel Encryption Done...................................\n"
	.align 8
.LC5:
	.string	"\nLets's sleep for a couple of seconds......................\n"
	.align 8
.LC6:
	.string	"Sequential Decryption Done................................\n"
	.align 8
.LC7:
	.string	"Parallel Decryption Done...................................\n\n"
.LC8:
	.string	"Encryption"
.LC9:
	.string	"-----------"
.LC10:
	.string	"Decryption"
	.text
	.globl	main
	.type	main, @function
main:
.LFB13352:
	.cfi_startproc
	.cfi_personality 0x9b,DW.ref.__gxx_personality_v0
	.cfi_lsda 0x1b,.LLSDA13352
	endbr64
	pushq	%rbp
	.cfi_def_cfa_offset 16
	.cfi_offset 6, -16
	movq	%rsp, %rbp
	.cfi_def_cfa_register 6
	pushq	%rbx
	subq	$888, %rsp
	.cfi_offset 3, -24
	movq	%fs:40, %rax
	movq	%rax, -24(%rbp)
	xorl	%eax, %eax
	leaq	-560(%rbp), %rax
	movl	$8, %edx
	leaq	.LC1(%rip), %rsi
	movq	%rax, %rdi
.LEHB4:
	call	_ZNSt13basic_fstreamIcSt11char_traitsIcEEC1EPKcSt13_Ios_Openmode@PLT
.LEHE4:
	leaq	-752(%rbp), %rax
	movq	%rax, %rdi
	call	_ZNSt6vectorINSt7__cxx1112basic_stringIcSt11char_traitsIcESaIcEEESaIS5_EEC1Ev
	leaq	-720(%rbp), %rax
	movq	%rax, %rdi
	call	_ZNSt6vectorINSt7__cxx1112basic_stringIcSt11char_traitsIcESaIcEEESaIS5_EEC1Ev
	leaq	-688(%rbp), %rax
	movq	%rax, %rdi
	call	_ZNSt6vectorINSt7__cxx1112basic_stringIcSt11char_traitsIcESaIcEEESaIS5_EEC1Ev
	leaq	-656(%rbp), %rax
	movq	%rax, %rdi
	call	_ZNSt7__cxx1112basic_stringIcSt11char_traitsIcESaIcEEC1Ev@PLT
	movl	$0, -892(%rbp)
	leaq	-656(%rbp), %rdx
	leaq	-560(%rbp), %rax
	movq	%rdx, %rsi
	movq	%rax, %rdi
.LEHB5:
	call	_ZSt7getlineIcSt11char_traitsIcESaIcEERSt13basic_istreamIT_T0_ES7_RNSt7__cxx1112basic_stringIS4_S5_T1_EE@PLT
	movl	$0, -888(%rbp)
.L73:
	cmpl	$9, -888(%rbp)
	jg	.L72
	leaq	-656(%rbp), %rdx
	leaq	-752(%rbp), %rax
	movq	%rdx, %rsi
	movq	%rax, %rdi
	call	_ZNSt6vectorINSt7__cxx1112basic_stringIcSt11char_traitsIcESaIcEEESaIS5_EE9push_backERKS5_
	leaq	-656(%rbp), %rax
	movq	%rax, %rdi
	call	_ZNKSt7__cxx1112basic_stringIcSt11char_traitsIcESaIcEE6lengthEv@PLT
	movl	%eax, %edx
	movl	-892(%rbp), %eax
	addl	%edx, %eax
	movl	%eax, -892(%rbp)
	addl	$1, -888(%rbp)
	jmp	.L73
.L72:
	leaq	.LC2(%rip), %rsi
	leaq	_ZSt4cout(%rip), %rdi
	call	_ZStlsISt11char_traitsIcEERSt13basic_ostreamIcT_ES5_PKc@PLT
	movq	%rax, %rdx
	movl	-892(%rbp), %eax
	movl	%eax, %esi
	movq	%rdx, %rdi
	call	_ZNSolsEi@PLT
	movq	%rax, %rdx
	movq	_ZSt4endlIcSt11char_traitsIcEERSt13basic_ostreamIT_T0_ES6_@GOTPCREL(%rip), %rax
	movq	%rax, %rsi
	movq	%rdx, %rdi
	call	_ZNSolsEPFRSoS_E@PLT
	leaq	-800(%rbp), %rax
	movq	%rax, %rdi
	call	_ZSt11make_sharedI12BenchmarkersJEESt10shared_ptrIT_EDpOT0_
.LEHE5:
	leaq	-784(%rbp), %rax
	movq	%rax, %rdi
.LEHB6:
	call	_ZSt11make_sharedI12BenchmarkersJEESt10shared_ptrIT_EDpOT0_
.LEHE6:
	leaq	-768(%rbp), %rax
	movq	%rax, %rdi
.LEHB7:
	call	_ZSt11make_sharedI12RsaEncrytionJEESt10shared_ptrIT_EDpOT0_
.LEHE7:
	leaq	-768(%rbp), %rax
	movq	%rax, %rdi
	call	_ZNKSt19__shared_ptr_accessI12RsaEncrytionLN9__gnu_cxx12_Lock_policyE2ELb0ELb0EEptEv
	movq	%rax, %rdi
.LEHB8:
	call	_ZN12RsaEncrytion14RsaKeyGenerateEv@PLT
.LEHE8:
	call	_ZNSt6chrono3_V212steady_clock3nowEv@PLT
	movq	%rax, -880(%rbp)
	movl	$0, -884(%rbp)
	movl	$1, -896(%rbp)
	leaq	-752(%rbp), %rax
	movq	%rax, -832(%rbp)
	movq	-832(%rbp), %rax
	movq	%rax, %rdi
	call	_ZNSt6vectorINSt7__cxx1112basic_stringIcSt11char_traitsIcESaIcEEESaIS5_EE5beginEv
	movq	%rax, -848(%rbp)
	movq	-832(%rbp), %rax
	movq	%rax, %rdi
	call	_ZNSt6vectorINSt7__cxx1112basic_stringIcSt11char_traitsIcESaIcEEESaIS5_EE3endEv
	movq	%rax, -840(%rbp)
.L79:
	leaq	-840(%rbp), %rdx
	leaq	-848(%rbp), %rax
	movq	%rdx, %rsi
	movq	%rax, %rdi
	call	_ZN9__gnu_cxxneIPNSt7__cxx1112basic_stringIcSt11char_traitsIcESaIcEEESt6vectorIS6_SaIS6_EEEEbRKNS_17__normal_iteratorIT_T0_EESG_
	testb	%al, %al
	je	.L74
	leaq	-848(%rbp), %rax
	movq	%rax, %rdi
	call	_ZNK9__gnu_cxx17__normal_iteratorIPNSt7__cxx1112basic_stringIcSt11char_traitsIcESaIcEEESt6vectorIS6_SaIS6_EEEdeEv
	movq	%rax, %rdx
	leaq	-624(%rbp), %rax
	movq	%rdx, %rsi
	movq	%rax, %rdi
.LEHB9:
	call	_ZNSt7__cxx1112basic_stringIcSt11char_traitsIcESaIcEEC1ERKS4_@PLT
.LEHE9:
	leaq	-624(%rbp), %rax
	movq	%rax, %rdi
	call	_ZNKSt7__cxx1112basic_stringIcSt11char_traitsIcESaIcEE5emptyEv@PLT
	testb	%al, %al
	je	.L75
	movl	$0, %ebx
	jmp	.L76
.L75:
	addl	$1, -884(%rbp)
	leaq	-768(%rbp), %rax
	movq	%rax, %rdi
	call	_ZNKSt19__shared_ptr_accessI12RsaEncrytionLN9__gnu_cxx12_Lock_policyE2ELb0ELb0EEptEv
	movq	%rax, %rsi
	leaq	-592(%rbp), %rax
	leaq	-896(%rbp), %rcx
	leaq	-624(%rbp), %rdx
	movq	%rax, %rdi
.LEHB10:
	call	_ZN12RsaEncrytion7EncryptERNSt7__cxx1112basic_stringIcSt11char_traitsIcESaIcEEERi@PLT
.LEHE10:
	leaq	-592(%rbp), %rdx
	leaq	-720(%rbp), %rax
	movq	%rdx, %rsi
	movq	%rax, %rdi
.LEHB11:
	call	_ZNSt6vectorINSt7__cxx1112basic_stringIcSt11char_traitsIcESaIcEEESaIS5_EE9push_backERKS5_
.LEHE11:
	leaq	-592(%rbp), %rax
	movq	%rax, %rdi
	call	_ZNSt7__cxx1112basic_stringIcSt11char_traitsIcESaIcEED1Ev@PLT
	movl	$1, %ebx
.L76:
	leaq	-624(%rbp), %rax
	movq	%rax, %rdi
	call	_ZNSt7__cxx1112basic_stringIcSt11char_traitsIcESaIcEED1Ev@PLT
	cmpl	$1, %ebx
	leaq	-848(%rbp), %rax
	movq	%rax, %rdi
	call	_ZN9__gnu_cxx17__normal_iteratorIPNSt7__cxx1112basic_stringIcSt11char_traitsIcESaIcEEESt6vectorIS6_SaIS6_EEEppEv
	jmp	.L79
.L74:
	call	_ZNSt6chrono3_V212steady_clock3nowEv@PLT
	movq	%rax, -872(%rbp)
	leaq	-880(%rbp), %rdx
	leaq	-872(%rbp), %rax
	movq	%rdx, %rsi
	movq	%rax, %rdi
	call	_ZNSt6chronomiINS_3_V212steady_clockENS_8durationIlSt5ratioILl1ELl1000000000EEEES6_EENSt11common_typeIJT0_T1_EE4typeERKNS_10time_pointIT_S8_EERKNSC_ISD_S9_EE
	movq	%rax, -840(%rbp)
	leaq	-840(%rbp), %rax
	movq	%rax, %rdi
.LEHB12:
	call	_ZNSt6chrono13duration_castINS_8durationIlSt5ratioILl1ELl1000EEEElS2_ILl1ELl1000000000EEEENSt9enable_ifIXsrNS_13__is_durationIT_EE5valueES8_E4typeERKNS1_IT0_T1_EE
	movq	%rax, -864(%rbp)
	leaq	-864(%rbp), %rax
	movq	%rax, %rdi
	call	_ZNKSt6chrono8durationIlSt5ratioILl1ELl1000EEE5countEv
	movq	%rax, %rbx
	leaq	-800(%rbp), %rax
	movq	%rax, %rdi
	call	_ZNKSt19__shared_ptr_accessI12BenchmarkersLN9__gnu_cxx12_Lock_policyE2ELb0ELb0EEptEv
	movl	%ebx, %edx
	movl	%edx, (%rax)
	leaq	.LC3(%rip), %rsi
	leaq	_ZSt4cout(%rip), %rdi
	call	_ZStlsISt11char_traitsIcEERSt13basic_ostreamIcT_ES5_PKc@PLT
.LEHE12:
	call	_ZNSt6chrono3_V212steady_clock3nowEv@PLT
	movq	%rax, -880(%rbp)
	movl	$0, -884(%rbp)
	call	_Z16GetNumberOfCoresv
	movl	%eax, -896(%rbp)
	leaq	-752(%rbp), %rax
	movq	%rax, -824(%rbp)
	movq	-824(%rbp), %rax
	movq	%rax, %rdi
	call	_ZNSt6vectorINSt7__cxx1112basic_stringIcSt11char_traitsIcESaIcEEESaIS5_EE5beginEv
	movq	%rax, -848(%rbp)
	movq	-824(%rbp), %rax
	movq	%rax, %rdi
	call	_ZNSt6vectorINSt7__cxx1112basic_stringIcSt11char_traitsIcESaIcEEESaIS5_EE3endEv
	movq	%rax, -840(%rbp)
.L85:
	leaq	-840(%rbp), %rdx
	leaq	-848(%rbp), %rax
	movq	%rdx, %rsi
	movq	%rax, %rdi
	call	_ZN9__gnu_cxxneIPNSt7__cxx1112basic_stringIcSt11char_traitsIcESaIcEEESt6vectorIS6_SaIS6_EEEEbRKNS_17__normal_iteratorIT_T0_EESG_
	testb	%al, %al
	je	.L80
	leaq	-848(%rbp), %rax
	movq	%rax, %rdi
	call	_ZNK9__gnu_cxx17__normal_iteratorIPNSt7__cxx1112basic_stringIcSt11char_traitsIcESaIcEEESt6vectorIS6_SaIS6_EEEdeEv
	movq	%rax, %rdx
	leaq	-624(%rbp), %rax
	movq	%rdx, %rsi
	movq	%rax, %rdi
.LEHB13:
	call	_ZNSt7__cxx1112basic_stringIcSt11char_traitsIcESaIcEEC1ERKS4_@PLT
.LEHE13:
	leaq	-624(%rbp), %rax
	movq	%rax, %rdi
	call	_ZNKSt7__cxx1112basic_stringIcSt11char_traitsIcESaIcEE5emptyEv@PLT
	testb	%al, %al
	je	.L81
	movl	$0, %ebx
	jmp	.L82
.L81:
	addl	$1, -884(%rbp)
	leaq	-768(%rbp), %rax
	movq	%rax, %rdi
	call	_ZNKSt19__shared_ptr_accessI12RsaEncrytionLN9__gnu_cxx12_Lock_policyE2ELb0ELb0EEptEv
	movq	%rax, %rsi
	leaq	-592(%rbp), %rax
	leaq	-896(%rbp), %rcx
	leaq	-624(%rbp), %rdx
	movq	%rax, %rdi
.LEHB14:
	call	_ZN12RsaEncrytion7EncryptERNSt7__cxx1112basic_stringIcSt11char_traitsIcESaIcEEERi@PLT
.LEHE14:
	leaq	-592(%rbp), %rax
	movq	%rax, %rdi
	call	_ZNSt7__cxx1112basic_stringIcSt11char_traitsIcESaIcEED1Ev@PLT
	movl	$1, %ebx
.L82:
	leaq	-624(%rbp), %rax
	movq	%rax, %rdi
	call	_ZNSt7__cxx1112basic_stringIcSt11char_traitsIcESaIcEED1Ev@PLT
	cmpl	$1, %ebx
	leaq	-848(%rbp), %rax
	movq	%rax, %rdi
	call	_ZN9__gnu_cxx17__normal_iteratorIPNSt7__cxx1112basic_stringIcSt11char_traitsIcESaIcEEESt6vectorIS6_SaIS6_EEEppEv
	jmp	.L85
.L80:
	call	_ZNSt6chrono3_V212steady_clock3nowEv@PLT
	movq	%rax, -872(%rbp)
	leaq	-880(%rbp), %rdx
	leaq	-872(%rbp), %rax
	movq	%rdx, %rsi
	movq	%rax, %rdi
	call	_ZNSt6chronomiINS_3_V212steady_clockENS_8durationIlSt5ratioILl1ELl1000000000EEEES6_EENSt11common_typeIJT0_T1_EE4typeERKNS_10time_pointIT_S8_EERKNSC_ISD_S9_EE
	movq	%rax, -840(%rbp)
	leaq	-840(%rbp), %rax
	movq	%rax, %rdi
.LEHB15:
	call	_ZNSt6chrono13duration_castINS_8durationIlSt5ratioILl1ELl1000EEEElS2_ILl1ELl1000000000EEEENSt9enable_ifIXsrNS_13__is_durationIT_EE5valueES8_E4typeERKNS1_IT0_T1_EE
	movq	%rax, -856(%rbp)
	leaq	-856(%rbp), %rax
	movq	%rax, %rdi
	call	_ZNKSt6chrono8durationIlSt5ratioILl1ELl1000EEE5countEv
	movq	%rax, %rbx
	leaq	-800(%rbp), %rax
	movq	%rax, %rdi
	call	_ZNKSt19__shared_ptr_accessI12BenchmarkersLN9__gnu_cxx12_Lock_policyE2ELb0ELb0EEptEv
	movl	%ebx, %edx
	movl	%edx, 4(%rax)
	leaq	.LC4(%rip), %rsi
	leaq	_ZSt4cout(%rip), %rdi
	call	_ZStlsISt11char_traitsIcEERSt13basic_ostreamIcT_ES5_PKc@PLT
	movl	$2, -848(%rbp)
	leaq	-848(%rbp), %rdx
	leaq	-840(%rbp), %rax
	movq	%rdx, %rsi
	movq	%rax, %rdi
	call	_ZNSt6chrono8durationIlSt5ratioILl1ELl1EEEC1IivEERKT_
	leaq	-840(%rbp), %rax
	movq	%rax, %rdi
	call	_ZNSt11this_thread9sleep_forIlSt5ratioILl1ELl1EEEEvRKNSt6chrono8durationIT_T0_EE
	leaq	.LC5(%rip), %rsi
	leaq	_ZSt4cout(%rip), %rdi
	call	_ZStlsISt11char_traitsIcEERSt13basic_ostreamIcT_ES5_PKc@PLT
	movq	%rax, %rdx
	movq	_ZSt4endlIcSt11char_traitsIcEERSt13basic_ostreamIT_T0_ES6_@GOTPCREL(%rip), %rax
	movq	%rax, %rsi
	movq	%rdx, %rdi
	call	_ZNSolsEPFRSoS_E@PLT
.LEHE15:
	movl	$1, -896(%rbp)
	movl	$0, -884(%rbp)
	call	_ZNSt6chrono3_V212steady_clock3nowEv@PLT
	movq	%rax, -880(%rbp)
	leaq	-720(%rbp), %rax
	movq	%rax, -816(%rbp)
	movq	-816(%rbp), %rax
	movq	%rax, %rdi
	call	_ZNSt6vectorINSt7__cxx1112basic_stringIcSt11char_traitsIcESaIcEEESaIS5_EE5beginEv
	movq	%rax, -848(%rbp)
	movq	-816(%rbp), %rax
	movq	%rax, %rdi
	call	_ZNSt6vectorINSt7__cxx1112basic_stringIcSt11char_traitsIcESaIcEEESaIS5_EE3endEv
	movq	%rax, -840(%rbp)
.L91:
	leaq	-840(%rbp), %rdx
	leaq	-848(%rbp), %rax
	movq	%rdx, %rsi
	movq	%rax, %rdi
	call	_ZN9__gnu_cxxneIPNSt7__cxx1112basic_stringIcSt11char_traitsIcESaIcEEESt6vectorIS6_SaIS6_EEEEbRKNS_17__normal_iteratorIT_T0_EESG_
	testb	%al, %al
	je	.L86
	leaq	-848(%rbp), %rax
	movq	%rax, %rdi
	call	_ZNK9__gnu_cxx17__normal_iteratorIPNSt7__cxx1112basic_stringIcSt11char_traitsIcESaIcEEESt6vectorIS6_SaIS6_EEEdeEv
	movq	%rax, %rdx
	leaq	-624(%rbp), %rax
	movq	%rdx, %rsi
	movq	%rax, %rdi
.LEHB16:
	call	_ZNSt7__cxx1112basic_stringIcSt11char_traitsIcESaIcEEC1ERKS4_@PLT
.LEHE16:
	leaq	-624(%rbp), %rax
	movq	%rax, %rdi
	call	_ZNKSt7__cxx1112basic_stringIcSt11char_traitsIcESaIcEE5emptyEv@PLT
	testb	%al, %al
	je	.L87
	movl	$0, %ebx
	jmp	.L88
.L87:
	addl	$1, -884(%rbp)
	leaq	-768(%rbp), %rax
	movq	%rax, %rdi
	call	_ZNKSt19__shared_ptr_accessI12RsaEncrytionLN9__gnu_cxx12_Lock_policyE2ELb0ELb0EEptEv
	movq	%rax, %rsi
	leaq	-592(%rbp), %rax
	leaq	-896(%rbp), %rcx
	leaq	-624(%rbp), %rdx
	movq	%rax, %rdi
.LEHB17:
	call	_ZN12RsaEncrytion7DecryptERNSt7__cxx1112basic_stringIcSt11char_traitsIcESaIcEEERi@PLT
.LEHE17:
	leaq	-592(%rbp), %rax
	movq	%rax, %rdi
	call	_ZNSt7__cxx1112basic_stringIcSt11char_traitsIcESaIcEED1Ev@PLT
	movl	$1, %ebx
.L88:
	leaq	-624(%rbp), %rax
	movq	%rax, %rdi
	call	_ZNSt7__cxx1112basic_stringIcSt11char_traitsIcESaIcEED1Ev@PLT
	cmpl	$1, %ebx
	leaq	-848(%rbp), %rax
	movq	%rax, %rdi
	call	_ZN9__gnu_cxx17__normal_iteratorIPNSt7__cxx1112basic_stringIcSt11char_traitsIcESaIcEEESt6vectorIS6_SaIS6_EEEppEv
	jmp	.L91
.L86:
	call	_ZNSt6chrono3_V212steady_clock3nowEv@PLT
	movq	%rax, -872(%rbp)
	leaq	-880(%rbp), %rdx
	leaq	-872(%rbp), %rax
	movq	%rdx, %rsi
	movq	%rax, %rdi
	call	_ZNSt6chronomiINS_3_V212steady_clockENS_8durationIlSt5ratioILl1ELl1000000000EEEES6_EENSt11common_typeIJT0_T1_EE4typeERKNS_10time_pointIT_S8_EERKNSC_ISD_S9_EE
	movq	%rax, -840(%rbp)
	leaq	-840(%rbp), %rax
	movq	%rax, %rdi
.LEHB18:
	call	_ZNSt6chrono13duration_castINS_8durationIlSt5ratioILl1ELl1000EEEElS2_ILl1ELl1000000000EEEENSt9enable_ifIXsrNS_13__is_durationIT_EE5valueES8_E4typeERKNS1_IT0_T1_EE
	movq	%rax, -848(%rbp)
	leaq	-848(%rbp), %rax
	movq	%rax, %rdi
	call	_ZNKSt6chrono8durationIlSt5ratioILl1ELl1000EEE5countEv
	movq	%rax, %rbx
	leaq	-784(%rbp), %rax
	movq	%rax, %rdi
	call	_ZNKSt19__shared_ptr_accessI12BenchmarkersLN9__gnu_cxx12_Lock_policyE2ELb0ELb0EEptEv
	movl	%ebx, %edx
	movl	%edx, (%rax)
	leaq	.LC6(%rip), %rsi
	leaq	_ZSt4cout(%rip), %rdi
	call	_ZStlsISt11char_traitsIcEERSt13basic_ostreamIcT_ES5_PKc@PLT
.LEHE18:
	call	_Z16GetNumberOfCoresv
	movl	%eax, -896(%rbp)
	movl	$0, -884(%rbp)
	call	_ZNSt6chrono3_V212steady_clock3nowEv@PLT
	movq	%rax, -880(%rbp)
	leaq	-720(%rbp), %rax
	movq	%rax, -808(%rbp)
	movq	-808(%rbp), %rax
	movq	%rax, %rdi
	call	_ZNSt6vectorINSt7__cxx1112basic_stringIcSt11char_traitsIcESaIcEEESaIS5_EE5beginEv
	movq	%rax, -848(%rbp)
	movq	-808(%rbp), %rax
	movq	%rax, %rdi
	call	_ZNSt6vectorINSt7__cxx1112basic_stringIcSt11char_traitsIcESaIcEEESaIS5_EE3endEv
	movq	%rax, -840(%rbp)
.L97:
	leaq	-840(%rbp), %rdx
	leaq	-848(%rbp), %rax
	movq	%rdx, %rsi
	movq	%rax, %rdi
	call	_ZN9__gnu_cxxneIPNSt7__cxx1112basic_stringIcSt11char_traitsIcESaIcEEESt6vectorIS6_SaIS6_EEEEbRKNS_17__normal_iteratorIT_T0_EESG_
	testb	%al, %al
	je	.L92
	leaq	-848(%rbp), %rax
	movq	%rax, %rdi
	call	_ZNK9__gnu_cxx17__normal_iteratorIPNSt7__cxx1112basic_stringIcSt11char_traitsIcESaIcEEESt6vectorIS6_SaIS6_EEEdeEv
	movq	%rax, %rdx
	leaq	-624(%rbp), %rax
	movq	%rdx, %rsi
	movq	%rax, %rdi
.LEHB19:
	call	_ZNSt7__cxx1112basic_stringIcSt11char_traitsIcESaIcEEC1ERKS4_@PLT
.LEHE19:
	leaq	-624(%rbp), %rax
	movq	%rax, %rdi
	call	_ZNKSt7__cxx1112basic_stringIcSt11char_traitsIcESaIcEE5emptyEv@PLT
	testb	%al, %al
	je	.L93
	movl	$0, %ebx
	jmp	.L94
.L93:
	addl	$1, -884(%rbp)
	leaq	-768(%rbp), %rax
	movq	%rax, %rdi
	call	_ZNKSt19__shared_ptr_accessI12RsaEncrytionLN9__gnu_cxx12_Lock_policyE2ELb0ELb0EEptEv
	movq	%rax, %rsi
	leaq	-592(%rbp), %rax
	leaq	-896(%rbp), %rcx
	leaq	-624(%rbp), %rdx
	movq	%rax, %rdi
.LEHB20:
	call	_ZN12RsaEncrytion7DecryptERNSt7__cxx1112basic_stringIcSt11char_traitsIcESaIcEEERi@PLT
.LEHE20:
	leaq	-592(%rbp), %rax
	movq	%rax, %rdi
	call	_ZNSt7__cxx1112basic_stringIcSt11char_traitsIcESaIcEED1Ev@PLT
	movl	$1, %ebx
.L94:
	leaq	-624(%rbp), %rax
	movq	%rax, %rdi
	call	_ZNSt7__cxx1112basic_stringIcSt11char_traitsIcESaIcEED1Ev@PLT
	cmpl	$1, %ebx
	leaq	-848(%rbp), %rax
	movq	%rax, %rdi
	call	_ZN9__gnu_cxx17__normal_iteratorIPNSt7__cxx1112basic_stringIcSt11char_traitsIcESaIcEEESt6vectorIS6_SaIS6_EEEppEv
	jmp	.L97
.L92:
	call	_ZNSt6chrono3_V212steady_clock3nowEv@PLT
	movq	%rax, -872(%rbp)
	leaq	-880(%rbp), %rdx
	leaq	-872(%rbp), %rax
	movq	%rdx, %rsi
	movq	%rax, %rdi
	call	_ZNSt6chronomiINS_3_V212steady_clockENS_8durationIlSt5ratioILl1ELl1000000000EEEES6_EENSt11common_typeIJT0_T1_EE4typeERKNS_10time_pointIT_S8_EERKNSC_ISD_S9_EE
	movq	%rax, -848(%rbp)
	leaq	-848(%rbp), %rax
	movq	%rax, %rdi
.LEHB21:
	call	_ZNSt6chrono13duration_castINS_8durationIlSt5ratioILl1ELl1000EEEElS2_ILl1ELl1000000000EEEENSt9enable_ifIXsrNS_13__is_durationIT_EE5valueES8_E4typeERKNS1_IT0_T1_EE
	movq	%rax, -840(%rbp)
	leaq	-840(%rbp), %rax
	movq	%rax, %rdi
	call	_ZNKSt6chrono8durationIlSt5ratioILl1ELl1000EEE5countEv
	movq	%rax, %rbx
	leaq	-784(%rbp), %rax
	movq	%rax, %rdi
	call	_ZNKSt19__shared_ptr_accessI12BenchmarkersLN9__gnu_cxx12_Lock_policyE2ELb0ELb0EEptEv
	movl	%ebx, %edx
	movl	%edx, 4(%rax)
	leaq	.LC7(%rip), %rsi
	leaq	_ZSt4cout(%rip), %rdi
	call	_ZStlsISt11char_traitsIcEERSt13basic_ostreamIcT_ES5_PKc@PLT
	leaq	.LC8(%rip), %rsi
	leaq	_ZSt4cout(%rip), %rdi
	call	_ZStlsISt11char_traitsIcEERSt13basic_ostreamIcT_ES5_PKc@PLT
	movq	%rax, %rdx
	movq	_ZSt4endlIcSt11char_traitsIcEERSt13basic_ostreamIT_T0_ES6_@GOTPCREL(%rip), %rax
	movq	%rax, %rsi
	movq	%rdx, %rdi
	call	_ZNSolsEPFRSoS_E@PLT
	leaq	.LC9(%rip), %rsi
	leaq	_ZSt4cout(%rip), %rdi
	call	_ZStlsISt11char_traitsIcEERSt13basic_ostreamIcT_ES5_PKc@PLT
	movq	%rax, %rdx
	movq	_ZSt4endlIcSt11char_traitsIcEERSt13basic_ostreamIT_T0_ES6_@GOTPCREL(%rip), %rax
	movq	%rax, %rsi
	movq	%rdx, %rdi
	call	_ZNSolsEPFRSoS_E@PLT
	leaq	-800(%rbp), %rax
	movq	%rax, %rdi
	call	_ZNKSt19__shared_ptr_accessI12BenchmarkersLN9__gnu_cxx12_Lock_policyE2ELb0ELb0EEptEv
	movq	%rax, %rdi
	call	_ZN12Benchmarkers11PrintParamsEv
	leaq	.LC10(%rip), %rsi
	leaq	_ZSt4cout(%rip), %rdi
	call	_ZStlsISt11char_traitsIcEERSt13basic_ostreamIcT_ES5_PKc@PLT
	movq	%rax, %rdx
	movq	_ZSt4endlIcSt11char_traitsIcEERSt13basic_ostreamIT_T0_ES6_@GOTPCREL(%rip), %rax
	movq	%rax, %rsi
	movq	%rdx, %rdi
	call	_ZNSolsEPFRSoS_E@PLT
	leaq	.LC9(%rip), %rsi
	leaq	_ZSt4cout(%rip), %rdi
	call	_ZStlsISt11char_traitsIcEERSt13basic_ostreamIcT_ES5_PKc@PLT
	movq	%rax, %rdx
	movq	_ZSt4endlIcSt11char_traitsIcEERSt13basic_ostreamIT_T0_ES6_@GOTPCREL(%rip), %rax
	movq	%rax, %rsi
	movq	%rdx, %rdi
	call	_ZNSolsEPFRSoS_E@PLT
	leaq	-784(%rbp), %rax
	movq	%rax, %rdi
	call	_ZNKSt19__shared_ptr_accessI12BenchmarkersLN9__gnu_cxx12_Lock_policyE2ELb0ELb0EEptEv
	movq	%rax, %rdi
	call	_ZN12Benchmarkers11PrintParamsEv
	leaq	-560(%rbp), %rax
	movq	%rax, %rdi
	call	_ZNSt13basic_fstreamIcSt11char_traitsIcEE5closeEv@PLT
.LEHE21:
	movl	$0, %ebx
	leaq	-768(%rbp), %rax
	movq	%rax, %rdi
	call	_ZNSt10shared_ptrI12RsaEncrytionED1Ev
	leaq	-784(%rbp), %rax
	movq	%rax, %rdi
	call	_ZNSt10shared_ptrI12BenchmarkersED1Ev
	leaq	-800(%rbp), %rax
	movq	%rax, %rdi
	call	_ZNSt10shared_ptrI12BenchmarkersED1Ev
	leaq	-656(%rbp), %rax
	movq	%rax, %rdi
	call	_ZNSt7__cxx1112basic_stringIcSt11char_traitsIcESaIcEED1Ev@PLT
	leaq	-688(%rbp), %rax
	movq	%rax, %rdi
	call	_ZNSt6vectorINSt7__cxx1112basic_stringIcSt11char_traitsIcESaIcEEESaIS5_EED1Ev
	leaq	-720(%rbp), %rax
	movq	%rax, %rdi
	call	_ZNSt6vectorINSt7__cxx1112basic_stringIcSt11char_traitsIcESaIcEEESaIS5_EED1Ev
	leaq	-752(%rbp), %rax
	movq	%rax, %rdi
	call	_ZNSt6vectorINSt7__cxx1112basic_stringIcSt11char_traitsIcESaIcEEESaIS5_EED1Ev
	leaq	-560(%rbp), %rax
	movq	%rax, %rdi
	call	_ZNSt13basic_fstreamIcSt11char_traitsIcEED1Ev@PLT
	movl	%ebx, %eax
	movq	-24(%rbp), %rcx
	xorq	%fs:40, %rcx
	je	.L112
	jmp	.L126
.L119:
	endbr64
	movq	%rax, %rbx
	leaq	-592(%rbp), %rax
	movq	%rax, %rdi
	call	_ZNSt7__cxx1112basic_stringIcSt11char_traitsIcESaIcEED1Ev@PLT
	jmp	.L100
.L118:
	endbr64
	movq	%rax, %rbx
.L100:
	leaq	-624(%rbp), %rax
	movq	%rax, %rdi
	call	_ZNSt7__cxx1112basic_stringIcSt11char_traitsIcESaIcEED1Ev@PLT
	movq	%rbx, %rax
	jmp	.L101
.L117:
	endbr64
.L101:
	movq	%rax, %rbx
	jmp	.L102
.L121:
	endbr64
	movq	%rax, %rbx
	leaq	-624(%rbp), %rax
	movq	%rax, %rdi
	call	_ZNSt7__cxx1112basic_stringIcSt11char_traitsIcESaIcEED1Ev@PLT
	movq	%rbx, %rax
	jmp	.L104
.L120:
	endbr64
.L104:
	movq	%rax, %rbx
	jmp	.L102
.L123:
	endbr64
	movq	%rax, %rbx
	leaq	-624(%rbp), %rax
	movq	%rax, %rdi
	call	_ZNSt7__cxx1112basic_stringIcSt11char_traitsIcESaIcEED1Ev@PLT
	movq	%rbx, %rax
	jmp	.L106
.L122:
	endbr64
.L106:
	movq	%rax, %rbx
	jmp	.L102
.L125:
	endbr64
	movq	%rax, %rbx
	leaq	-624(%rbp), %rax
	movq	%rax, %rdi
	call	_ZNSt7__cxx1112basic_stringIcSt11char_traitsIcESaIcEED1Ev@PLT
	movq	%rbx, %rax
	jmp	.L108
.L124:
	endbr64
.L108:
	movq	%rax, %rbx
	jmp	.L102
.L116:
	endbr64
	movq	%rax, %rbx
.L102:
	leaq	-768(%rbp), %rax
	movq	%rax, %rdi
	call	_ZNSt10shared_ptrI12RsaEncrytionED1Ev
	jmp	.L109
.L115:
	endbr64
	movq	%rax, %rbx
.L109:
	leaq	-784(%rbp), %rax
	movq	%rax, %rdi
	call	_ZNSt10shared_ptrI12BenchmarkersED1Ev
	jmp	.L110
.L114:
	endbr64
	movq	%rax, %rbx
.L110:
	leaq	-800(%rbp), %rax
	movq	%rax, %rdi
	call	_ZNSt10shared_ptrI12BenchmarkersED1Ev
	jmp	.L111
.L113:
	endbr64
	movq	%rax, %rbx
.L111:
	leaq	-656(%rbp), %rax
	movq	%rax, %rdi
	call	_ZNSt7__cxx1112basic_stringIcSt11char_traitsIcESaIcEED1Ev@PLT
	leaq	-688(%rbp), %rax
	movq	%rax, %rdi
	call	_ZNSt6vectorINSt7__cxx1112basic_stringIcSt11char_traitsIcESaIcEEESaIS5_EED1Ev
	leaq	-720(%rbp), %rax
	movq	%rax, %rdi
	call	_ZNSt6vectorINSt7__cxx1112basic_stringIcSt11char_traitsIcESaIcEEESaIS5_EED1Ev
	leaq	-752(%rbp), %rax
	movq	%rax, %rdi
	call	_ZNSt6vectorINSt7__cxx1112basic_stringIcSt11char_traitsIcESaIcEEESaIS5_EED1Ev
	leaq	-560(%rbp), %rax
	movq	%rax, %rdi
	call	_ZNSt13basic_fstreamIcSt11char_traitsIcEED1Ev@PLT
	movq	%rbx, %rax
	movq	%rax, %rdi
.LEHB22:
	call	_Unwind_Resume@PLT
.LEHE22:
.L126:
	call	__stack_chk_fail@PLT
.L112:
	addq	$888, %rsp
	popq	%rbx
	popq	%rbp
	.cfi_def_cfa 7, 8
	ret
	.cfi_endproc
.LFE13352:
	.section	.gcc_except_table,"a",@progbits
.LLSDA13352:
	.byte	0xff
	.byte	0xff
	.byte	0x1
	.uleb128 .LLSDACSE13352-.LLSDACSB13352
.LLSDACSB13352:
	.uleb128 .LEHB4-.LFB13352
	.uleb128 .LEHE4-.LEHB4
	.uleb128 0
	.uleb128 0
	.uleb128 .LEHB5-.LFB13352
	.uleb128 .LEHE5-.LEHB5
	.uleb128 .L113-.LFB13352
	.uleb128 0
	.uleb128 .LEHB6-.LFB13352
	.uleb128 .LEHE6-.LEHB6
	.uleb128 .L114-.LFB13352
	.uleb128 0
	.uleb128 .LEHB7-.LFB13352
	.uleb128 .LEHE7-.LEHB7
	.uleb128 .L115-.LFB13352
	.uleb128 0
	.uleb128 .LEHB8-.LFB13352
	.uleb128 .LEHE8-.LEHB8
	.uleb128 .L116-.LFB13352
	.uleb128 0
	.uleb128 .LEHB9-.LFB13352
	.uleb128 .LEHE9-.LEHB9
	.uleb128 .L117-.LFB13352
	.uleb128 0
	.uleb128 .LEHB10-.LFB13352
	.uleb128 .LEHE10-.LEHB10
	.uleb128 .L118-.LFB13352
	.uleb128 0
	.uleb128 .LEHB11-.LFB13352
	.uleb128 .LEHE11-.LEHB11
	.uleb128 .L119-.LFB13352
	.uleb128 0
	.uleb128 .LEHB12-.LFB13352
	.uleb128 .LEHE12-.LEHB12
	.uleb128 .L116-.LFB13352
	.uleb128 0
	.uleb128 .LEHB13-.LFB13352
	.uleb128 .LEHE13-.LEHB13
	.uleb128 .L120-.LFB13352
	.uleb128 0
	.uleb128 .LEHB14-.LFB13352
	.uleb128 .LEHE14-.LEHB14
	.uleb128 .L121-.LFB13352
	.uleb128 0
	.uleb128 .LEHB15-.LFB13352
	.uleb128 .LEHE15-.LEHB15
	.uleb128 .L116-.LFB13352
	.uleb128 0
	.uleb128 .LEHB16-.LFB13352
	.uleb128 .LEHE16-.LEHB16
	.uleb128 .L122-.LFB13352
	.uleb128 0
	.uleb128 .LEHB17-.LFB13352
	.uleb128 .LEHE17-.LEHB17
	.uleb128 .L123-.LFB13352
	.uleb128 0
	.uleb128 .LEHB18-.LFB13352
	.uleb128 .LEHE18-.LEHB18
	.uleb128 .L116-.LFB13352
	.uleb128 0
	.uleb128 .LEHB19-.LFB13352
	.uleb128 .LEHE19-.LEHB19
	.uleb128 .L124-.LFB13352
	.uleb128 0
	.uleb128 .LEHB20-.LFB13352
	.uleb128 .LEHE20-.LEHB20
	.uleb128 .L125-.LFB13352
	.uleb128 0
	.uleb128 .LEHB21-.LFB13352
	.uleb128 .LEHE21-.LEHB21
	.uleb128 .L116-.LFB13352
	.uleb128 0
	.uleb128 .LEHB22-.LFB13352
	.uleb128 .LEHE22-.LEHB22
	.uleb128 0
	.uleb128 0
.LLSDACSE13352:
	.text
	.size	main, .-main
	.section	.text._ZNKSt6chrono8durationIlSt5ratioILl1ELl1EEE5countEv,"axG",@progbits,_ZNKSt6chrono8durationIlSt5ratioILl1ELl1EEE5countEv,comdat
	.align 2
	.weak	_ZNKSt6chrono8durationIlSt5ratioILl1ELl1EEE5countEv
	.type	_ZNKSt6chrono8durationIlSt5ratioILl1ELl1EEE5countEv, @function
_ZNKSt6chrono8durationIlSt5ratioILl1ELl1EEE5countEv:
.LFB13613:
	.cfi_startproc
	endbr64
	pushq	%rbp
	.cfi_def_cfa_offset 16
	.cfi_offset 6, -16
	movq	%rsp, %rbp
	.cfi_def_cfa_register 6
	movq	%rdi, -8(%rbp)
	movq	-8(%rbp), %rax
	movq	(%rax), %rax
	popq	%rbp
	.cfi_def_cfa 7, 8
	ret
	.cfi_endproc
.LFE13613:
	.size	_ZNKSt6chrono8durationIlSt5ratioILl1ELl1EEE5countEv, .-_ZNKSt6chrono8durationIlSt5ratioILl1ELl1EEE5countEv
	.section	.text._ZNSt6chrono8durationIlSt5ratioILl1ELl1EEEC2IlvEERKT_,"axG",@progbits,_ZNSt6chrono8durationIlSt5ratioILl1ELl1EEEC5IlvEERKT_,comdat
	.align 2
	.weak	_ZNSt6chrono8durationIlSt5ratioILl1ELl1EEEC2IlvEERKT_
	.type	_ZNSt6chrono8durationIlSt5ratioILl1ELl1EEEC2IlvEERKT_, @function
_ZNSt6chrono8durationIlSt5ratioILl1ELl1EEEC2IlvEERKT_:
.LFB13615:
	.cfi_startproc
	endbr64
	pushq	%rbp
	.cfi_def_cfa_offset 16
	.cfi_offset 6, -16
	movq	%rsp, %rbp
	.cfi_def_cfa_register 6
	movq	%rdi, -8(%rbp)
	movq	%rsi, -16(%rbp)
	movq	-16(%rbp), %rax
	movq	(%rax), %rdx
	movq	-8(%rbp), %rax
	movq	%rdx, (%rax)
	nop
	popq	%rbp
	.cfi_def_cfa 7, 8
	ret
	.cfi_endproc
.LFE13615:
	.size	_ZNSt6chrono8durationIlSt5ratioILl1ELl1EEEC2IlvEERKT_, .-_ZNSt6chrono8durationIlSt5ratioILl1ELl1EEEC2IlvEERKT_
	.weak	_ZNSt6chrono8durationIlSt5ratioILl1ELl1EEEC1IlvEERKT_
	.set	_ZNSt6chrono8durationIlSt5ratioILl1ELl1EEEC1IlvEERKT_,_ZNSt6chrono8durationIlSt5ratioILl1ELl1EEEC2IlvEERKT_
	.section	.text._ZN5boost16exception_detail12refcount_ptrINS0_20error_info_containerEEC2Ev,"axG",@progbits,_ZN5boost16exception_detail12refcount_ptrINS0_20error_info_containerEEC5Ev,comdat
	.align 2
	.weak	_ZN5boost16exception_detail12refcount_ptrINS0_20error_info_containerEEC2Ev
	.type	_ZN5boost16exception_detail12refcount_ptrINS0_20error_info_containerEEC2Ev, @function
_ZN5boost16exception_detail12refcount_ptrINS0_20error_info_containerEEC2Ev:
.LFB13662:
	.cfi_startproc
	endbr64
	pushq	%rbp
	.cfi_def_cfa_offset 16
	.cfi_offset 6, -16
	movq	%rsp, %rbp
	.cfi_def_cfa_register 6
	movq	%rdi, -8(%rbp)
	movq	-8(%rbp), %rax
	movq	$0, (%rax)
	nop
	popq	%rbp
	.cfi_def_cfa 7, 8
	ret
	.cfi_endproc
.LFE13662:
	.size	_ZN5boost16exception_detail12refcount_ptrINS0_20error_info_containerEEC2Ev, .-_ZN5boost16exception_detail12refcount_ptrINS0_20error_info_containerEEC2Ev
	.weak	_ZN5boost16exception_detail12refcount_ptrINS0_20error_info_containerEEC1Ev
	.set	_ZN5boost16exception_detail12refcount_ptrINS0_20error_info_containerEEC1Ev,_ZN5boost16exception_detail12refcount_ptrINS0_20error_info_containerEEC2Ev
	.section	.text._ZN5boost16exception_detail12refcount_ptrINS0_20error_info_containerEED2Ev,"axG",@progbits,_ZN5boost16exception_detail12refcount_ptrINS0_20error_info_containerEED5Ev,comdat
	.align 2
	.weak	_ZN5boost16exception_detail12refcount_ptrINS0_20error_info_containerEED2Ev
	.type	_ZN5boost16exception_detail12refcount_ptrINS0_20error_info_containerEED2Ev, @function
_ZN5boost16exception_detail12refcount_ptrINS0_20error_info_containerEED2Ev:
.LFB13665:
	.cfi_startproc
	.cfi_personality 0x9b,DW.ref.__gxx_personality_v0
	.cfi_lsda 0x1b,.LLSDA13665
	endbr64
	pushq	%rbp
	.cfi_def_cfa_offset 16
	.cfi_offset 6, -16
	movq	%rsp, %rbp
	.cfi_def_cfa_register 6
	subq	$16, %rsp
	movq	%rdi, -8(%rbp)
	movq	-8(%rbp), %rax
	movq	%rax, %rdi
	call	_ZN5boost16exception_detail12refcount_ptrINS0_20error_info_containerEE7releaseEv
	nop
	leave
	.cfi_def_cfa 7, 8
	ret
	.cfi_endproc
.LFE13665:
	.section	.gcc_except_table
.LLSDA13665:
	.byte	0xff
	.byte	0xff
	.byte	0x1
	.uleb128 .LLSDACSE13665-.LLSDACSB13665
.LLSDACSB13665:
.LLSDACSE13665:
	.section	.text._ZN5boost16exception_detail12refcount_ptrINS0_20error_info_containerEED2Ev,"axG",@progbits,_ZN5boost16exception_detail12refcount_ptrINS0_20error_info_containerEED5Ev,comdat
	.size	_ZN5boost16exception_detail12refcount_ptrINS0_20error_info_containerEED2Ev, .-_ZN5boost16exception_detail12refcount_ptrINS0_20error_info_containerEED2Ev
	.weak	_ZN5boost16exception_detail12refcount_ptrINS0_20error_info_containerEED1Ev
	.set	_ZN5boost16exception_detail12refcount_ptrINS0_20error_info_containerEED1Ev,_ZN5boost16exception_detail12refcount_ptrINS0_20error_info_containerEED2Ev
	.section	.text._ZNK5boost16exception_detail12refcount_ptrINS0_20error_info_containerEE3getEv,"axG",@progbits,_ZNK5boost16exception_detail12refcount_ptrINS0_20error_info_containerEE3getEv,comdat
	.align 2
	.weak	_ZNK5boost16exception_detail12refcount_ptrINS0_20error_info_containerEE3getEv
	.type	_ZNK5boost16exception_detail12refcount_ptrINS0_20error_info_containerEE3getEv, @function
_ZNK5boost16exception_detail12refcount_ptrINS0_20error_info_containerEE3getEv:
.LFB13667:
	.cfi_startproc
	endbr64
	pushq	%rbp
	.cfi_def_cfa_offset 16
	.cfi_offset 6, -16
	movq	%rsp, %rbp
	.cfi_def_cfa_register 6
	movq	%rdi, -8(%rbp)
	movq	-8(%rbp), %rax
	movq	(%rax), %rax
	popq	%rbp
	.cfi_def_cfa 7, 8
	ret
	.cfi_endproc
.LFE13667:
	.size	_ZNK5boost16exception_detail12refcount_ptrINS0_20error_info_containerEE3getEv, .-_ZNK5boost16exception_detail12refcount_ptrINS0_20error_info_containerEE3getEv
	.section	.text._ZN5boost16exception_detail12refcount_ptrINS0_20error_info_containerEEaSERKS3_,"axG",@progbits,_ZN5boost16exception_detail12refcount_ptrINS0_20error_info_containerEEaSERKS3_,comdat
	.align 2
	.weak	_ZN5boost16exception_detail12refcount_ptrINS0_20error_info_containerEEaSERKS3_
	.type	_ZN5boost16exception_detail12refcount_ptrINS0_20error_info_containerEEaSERKS3_, @function
_ZN5boost16exception_detail12refcount_ptrINS0_20error_info_containerEEaSERKS3_:
.LFB13668:
	.cfi_startproc
	endbr64
	pushq	%rbp
	.cfi_def_cfa_offset 16
	.cfi_offset 6, -16
	movq	%rsp, %rbp
	.cfi_def_cfa_register 6
	subq	$16, %rsp
	movq	%rdi, -8(%rbp)
	movq	%rsi, -16(%rbp)
	movq	-16(%rbp), %rax
	movq	(%rax), %rdx
	movq	-8(%rbp), %rax
	movq	%rdx, %rsi
	movq	%rax, %rdi
	call	_ZN5boost16exception_detail12refcount_ptrINS0_20error_info_containerEE5adoptEPS2_
	movq	-8(%rbp), %rax
	leave
	.cfi_def_cfa 7, 8
	ret
	.cfi_endproc
.LFE13668:
	.size	_ZN5boost16exception_detail12refcount_ptrINS0_20error_info_containerEEaSERKS3_, .-_ZN5boost16exception_detail12refcount_ptrINS0_20error_info_containerEEaSERKS3_
	.section	.text._ZN5boost16exception_detail16throw_exception_ISt11range_errorEEvRKT_PKcS7_i,"axG",@progbits,_ZN5boost16exception_detail16throw_exception_ISt11range_errorEEvRKT_PKcS7_i,comdat
	.weak	_ZN5boost16exception_detail16throw_exception_ISt11range_errorEEvRKT_PKcS7_i
	.type	_ZN5boost16exception_detail16throw_exception_ISt11range_errorEEvRKT_PKcS7_i, @function
_ZN5boost16exception_detail16throw_exception_ISt11range_errorEEvRKT_PKcS7_i:
.LFB13714:
	.cfi_startproc
	.cfi_personality 0x9b,DW.ref.__gxx_personality_v0
	.cfi_lsda 0x1b,.LLSDA13714
	endbr64
	pushq	%rbp
	.cfi_def_cfa_offset 16
	.cfi_offset 6, -16
	movq	%rsp, %rbp
	.cfi_def_cfa_register 6
	pushq	%rbx
	subq	$136, %rsp
	.cfi_offset 3, -24
	movq	%rdi, -120(%rbp)
	movq	%rsi, -128(%rbp)
	movq	%rdx, -136(%rbp)
	movl	%ecx, -140(%rbp)
	movq	%fs:40, %rax
	movq	%rax, -24(%rbp)
	xorl	%eax, %eax
	movl	-140(%rbp), %edx
	leaq	-100(%rbp), %rax
	movl	%edx, %esi
	movq	%rax, %rdi
	call	_ZN5boost10error_infoINS_11throw_line_EiEC1Ei
	movq	-136(%rbp), %rdx
	leaq	-88(%rbp), %rax
	movq	%rdx, %rsi
	movq	%rax, %rdi
	call	_ZN5boost10error_infoINS_11throw_file_EPKcEC1ES3_
	movq	-128(%rbp), %rdx
	leaq	-96(%rbp), %rax
	movq	%rdx, %rsi
	movq	%rax, %rdi
	call	_ZN5boost10error_infoINS_15throw_function_EPKcEC1ES3_
	leaq	-80(%rbp), %rax
	movq	-120(%rbp), %rdx
	movq	%rdx, %rsi
	movq	%rax, %rdi
.LEHB23:
	call	_ZN5boost17enable_error_infoISt11range_errorEENS_16exception_detail29enable_error_info_return_typeIT_E4typeERKS4_
.LEHE23:
	leaq	-96(%rbp), %rdx
	leaq	-80(%rbp), %rax
	movq	%rdx, %rsi
	movq	%rax, %rdi
	call	_ZN5boost16exception_detail8set_infoINS0_19error_info_injectorISt11range_errorEEEERKT_S7_RKNS_10error_infoINS_15throw_function_EPKcEE
	movq	%rax, %rdx
	leaq	-88(%rbp), %rax
	movq	%rax, %rsi
	movq	%rdx, %rdi
	call	_ZN5boost16exception_detail8set_infoINS0_19error_info_injectorISt11range_errorEEEERKT_S7_RKNS_10error_infoINS_11throw_file_EPKcEE
	movq	%rax, %rdx
	leaq	-100(%rbp), %rax
	movq	%rax, %rsi
	movq	%rdx, %rdi
	call	_ZN5boost16exception_detail8set_infoINS0_19error_info_injectorISt11range_errorEEEERKT_S7_RKNS_10error_infoINS_11throw_line_EiEE
	movq	%rax, %rdi
.LEHB24:
	call	_ZN5boost15throw_exceptionINS_16exception_detail19error_info_injectorISt11range_errorEEEEvRKT_
.LEHE24:
.L141:
	endbr64
	movq	%rax, %rbx
	leaq	-80(%rbp), %rax
	movq	%rax, %rdi
	call	_ZN5boost16exception_detail19error_info_injectorISt11range_errorED1Ev
	movq	%rbx, %rax
	jmp	.L138
.L140:
	endbr64
.L138:
	movq	%rax, %rdi
.LEHB25:
	call	_Unwind_Resume@PLT
.LEHE25:
	.cfi_endproc
.LFE13714:
	.section	.gcc_except_table
.LLSDA13714:
	.byte	0xff
	.byte	0xff
	.byte	0x1
	.uleb128 .LLSDACSE13714-.LLSDACSB13714
.LLSDACSB13714:
	.uleb128 .LEHB23-.LFB13714
	.uleb128 .LEHE23-.LEHB23
	.uleb128 .L140-.LFB13714
	.uleb128 0
	.uleb128 .LEHB24-.LFB13714
	.uleb128 .LEHE24-.LEHB24
	.uleb128 .L141-.LFB13714
	.uleb128 0
	.uleb128 .LEHB25-.LFB13714
	.uleb128 .LEHE25-.LEHB25
	.uleb128 0
	.uleb128 0
.LLSDACSE13714:
	.section	.text._ZN5boost16exception_detail16throw_exception_ISt11range_errorEEvRKT_PKcS7_i,"axG",@progbits,_ZN5boost16exception_detail16throw_exception_ISt11range_errorEEvRKT_PKcS7_i,comdat
	.size	_ZN5boost16exception_detail16throw_exception_ISt11range_errorEEvRKT_PKcS7_i, .-_ZN5boost16exception_detail16throw_exception_ISt11range_errorEEvRKT_PKcS7_i
	.section	.text._ZN5boost6empty_11empty_valueISaIyELj0ELb1EED2Ev,"axG",@progbits,_ZN5boost6empty_11empty_valueISaIyELj0ELb1EED5Ev,comdat
	.align 2
	.weak	_ZN5boost6empty_11empty_valueISaIyELj0ELb1EED2Ev
	.type	_ZN5boost6empty_11empty_valueISaIyELj0ELb1EED2Ev, @function
_ZN5boost6empty_11empty_valueISaIyELj0ELb1EED2Ev:
.LFB13788:
	.cfi_startproc
	endbr64
	pushq	%rbp
	.cfi_def_cfa_offset 16
	.cfi_offset 6, -16
	movq	%rsp, %rbp
	.cfi_def_cfa_register 6
	subq	$16, %rsp
	movq	%rdi, -8(%rbp)
	movq	-8(%rbp), %rax
	movq	%rax, %rdi
	call	_ZNSaIyED2Ev
	nop
	leave
	.cfi_def_cfa 7, 8
	ret
	.cfi_endproc
.LFE13788:
	.size	_ZN5boost6empty_11empty_valueISaIyELj0ELb1EED2Ev, .-_ZN5boost6empty_11empty_valueISaIyELj0ELb1EED2Ev
	.weak	_ZN5boost6empty_11empty_valueISaIyELj0ELb1EED1Ev
	.set	_ZN5boost6empty_11empty_valueISaIyELj0ELb1EED1Ev,_ZN5boost6empty_11empty_valueISaIyELj0ELb1EED2Ev
	.section	.text._ZN5boost14multiprecision8backends12cpp_int_baseILj0ELj4294967295ELNS0_16cpp_integer_typeE1ELNS0_18cpp_int_check_typeE0ESaIyELb0EED2Ev,"axG",@progbits,_ZN5boost14multiprecision8backends12cpp_int_baseILj0ELj4294967295ELNS0_16cpp_integer_typeE1ELNS0_18cpp_int_check_typeE0ESaIyELb0EED5Ev,comdat
	.align 2
	.weak	_ZN5boost14multiprecision8backends12cpp_int_baseILj0ELj4294967295ELNS0_16cpp_integer_typeE1ELNS0_18cpp_int_check_typeE0ESaIyELb0EED2Ev
	.type	_ZN5boost14multiprecision8backends12cpp_int_baseILj0ELj4294967295ELNS0_16cpp_integer_typeE1ELNS0_18cpp_int_check_typeE0ESaIyELb0EED2Ev, @function
_ZN5boost14multiprecision8backends12cpp_int_baseILj0ELj4294967295ELNS0_16cpp_integer_typeE1ELNS0_18cpp_int_check_typeE0ESaIyELb0EED2Ev:
.LFB13793:
	.cfi_startproc
	endbr64
	pushq	%rbp
	.cfi_def_cfa_offset 16
	.cfi_offset 6, -16
	movq	%rsp, %rbp
	.cfi_def_cfa_register 6
	pushq	%r12
	pushq	%rbx
	subq	$16, %rsp
	.cfi_offset 12, -24
	.cfi_offset 3, -32
	movq	%rdi, -24(%rbp)
	movq	-24(%rbp), %rax
	movzbl	21(%rax), %eax
	xorl	$1, %eax
	testb	%al, %al
	je	.L144
	movq	-24(%rbp), %rax
	movq	%rax, %rdi
	call	_ZN5boost14multiprecision8backends12cpp_int_baseILj0ELj4294967295ELNS0_16cpp_integer_typeE1ELNS0_18cpp_int_check_typeE0ESaIyELb0EE9allocatorEv
	movq	%rax, %rbx
	movq	-24(%rbp), %rax
	movq	%rax, %rdi
	call	_ZNK5boost14multiprecision8backends12cpp_int_baseILj0ELj4294967295ELNS0_16cpp_integer_typeE1ELNS0_18cpp_int_check_typeE0ESaIyELb0EE8capacityEv
	movl	%eax, %r12d
	movq	-24(%rbp), %rax
	movq	%rax, %rdi
	call	_ZN5boost14multiprecision8backends12cpp_int_baseILj0ELj4294967295ELNS0_16cpp_integer_typeE1ELNS0_18cpp_int_check_typeE0ESaIyELb0EE5limbsEv
	movq	%r12, %rdx
	movq	%rax, %rsi
	movq	%rbx, %rdi
	call	_ZN9__gnu_cxx13new_allocatorIyE10deallocateEPym
.L144:
	movq	-24(%rbp), %rax
	movq	%rax, %rdi
	call	_ZN5boost6empty_11empty_valueISaIyELj0ELb1EED2Ev
	nop
	addq	$16, %rsp
	popq	%rbx
	popq	%r12
	popq	%rbp
	.cfi_def_cfa 7, 8
	ret
	.cfi_endproc
.LFE13793:
	.size	_ZN5boost14multiprecision8backends12cpp_int_baseILj0ELj4294967295ELNS0_16cpp_integer_typeE1ELNS0_18cpp_int_check_typeE0ESaIyELb0EED2Ev, .-_ZN5boost14multiprecision8backends12cpp_int_baseILj0ELj4294967295ELNS0_16cpp_integer_typeE1ELNS0_18cpp_int_check_typeE0ESaIyELb0EED2Ev
	.weak	_ZN5boost14multiprecision8backends12cpp_int_baseILj0ELj4294967295ELNS0_16cpp_integer_typeE1ELNS0_18cpp_int_check_typeE0ESaIyELb0EED1Ev
	.set	_ZN5boost14multiprecision8backends12cpp_int_baseILj0ELj4294967295ELNS0_16cpp_integer_typeE1ELNS0_18cpp_int_check_typeE0ESaIyELb0EED1Ev,_ZN5boost14multiprecision8backends12cpp_int_baseILj0ELj4294967295ELNS0_16cpp_integer_typeE1ELNS0_18cpp_int_check_typeE0ESaIyELb0EED2Ev
	.section	.text._ZN5boost6empty_11empty_valueISaIyELj0ELb1EEC2Ev,"axG",@progbits,_ZN5boost6empty_11empty_valueISaIyELj0ELb1EEC5Ev,comdat
	.align 2
	.weak	_ZN5boost6empty_11empty_valueISaIyELj0ELb1EEC2Ev
	.type	_ZN5boost6empty_11empty_valueISaIyELj0ELb1EEC2Ev, @function
_ZN5boost6empty_11empty_valueISaIyELj0ELb1EEC2Ev:
.LFB13800:
	.cfi_startproc
	endbr64
	pushq	%rbp
	.cfi_def_cfa_offset 16
	.cfi_offset 6, -16
	movq	%rsp, %rbp
	.cfi_def_cfa_register 6
	subq	$16, %rsp
	movq	%rdi, -8(%rbp)
	movq	-8(%rbp), %rax
	movq	%rax, %rdi
	call	_ZNSaIyEC2Ev
	nop
	leave
	.cfi_def_cfa 7, 8
	ret
	.cfi_endproc
.LFE13800:
	.size	_ZN5boost6empty_11empty_valueISaIyELj0ELb1EEC2Ev, .-_ZN5boost6empty_11empty_valueISaIyELj0ELb1EEC2Ev
	.weak	_ZN5boost6empty_11empty_valueISaIyELj0ELb1EEC1Ev
	.set	_ZN5boost6empty_11empty_valueISaIyELj0ELb1EEC1Ev,_ZN5boost6empty_11empty_valueISaIyELj0ELb1EEC2Ev
	.section	.text._ZN5boost14multiprecision6numberINS0_8backends13cpp_bin_floatILj100ELNS2_15digit_base_typeE10EviLi0ELi0EEELNS0_26expression_template_optionE0EEC2Ev,"axG",@progbits,_ZN5boost14multiprecision6numberINS0_8backends13cpp_bin_floatILj100ELNS2_15digit_base_typeE10EviLi0ELi0EEELNS0_26expression_template_optionE0EEC5Ev,comdat
	.align 2
	.weak	_ZN5boost14multiprecision6numberINS0_8backends13cpp_bin_floatILj100ELNS2_15digit_base_typeE10EviLi0ELi0EEELNS0_26expression_template_optionE0EEC2Ev
	.type	_ZN5boost14multiprecision6numberINS0_8backends13cpp_bin_floatILj100ELNS2_15digit_base_typeE10EviLi0ELi0EEELNS0_26expression_template_optionE0EEC2Ev, @function
_ZN5boost14multiprecision6numberINS0_8backends13cpp_bin_floatILj100ELNS2_15digit_base_typeE10EviLi0ELi0EEELNS0_26expression_template_optionE0EEC2Ev:
.LFB13862:
	.cfi_startproc
	endbr64
	pushq	%rbp
	.cfi_def_cfa_offset 16
	.cfi_offset 6, -16
	movq	%rsp, %rbp
	.cfi_def_cfa_register 6
	subq	$16, %rsp
	movq	%rdi, -8(%rbp)
	movq	-8(%rbp), %rax
	movq	%rax, %rdi
	call	_ZN5boost14multiprecision8backends13cpp_bin_floatILj100ELNS1_15digit_base_typeE10EviLi0ELi0EEC1Ev
	nop
	leave
	.cfi_def_cfa 7, 8
	ret
	.cfi_endproc
.LFE13862:
	.size	_ZN5boost14multiprecision6numberINS0_8backends13cpp_bin_floatILj100ELNS2_15digit_base_typeE10EviLi0ELi0EEELNS0_26expression_template_optionE0EEC2Ev, .-_ZN5boost14multiprecision6numberINS0_8backends13cpp_bin_floatILj100ELNS2_15digit_base_typeE10EviLi0ELi0EEELNS0_26expression_template_optionE0EEC2Ev
	.weak	_ZN5boost14multiprecision6numberINS0_8backends13cpp_bin_floatILj100ELNS2_15digit_base_typeE10EviLi0ELi0EEELNS0_26expression_template_optionE0EEC1Ev
	.set	_ZN5boost14multiprecision6numberINS0_8backends13cpp_bin_floatILj100ELNS2_15digit_base_typeE10EviLi0ELi0EEELNS0_26expression_template_optionE0EEC1Ev,_ZN5boost14multiprecision6numberINS0_8backends13cpp_bin_floatILj100ELNS2_15digit_base_typeE10EviLi0ELi0EEELNS0_26expression_template_optionE0EEC2Ev
	.section	.text._ZNSt14__shared_countILN9__gnu_cxx12_Lock_policyE2EED2Ev,"axG",@progbits,_ZNSt14__shared_countILN9__gnu_cxx12_Lock_policyE2EED5Ev,comdat
	.align 2
	.weak	_ZNSt14__shared_countILN9__gnu_cxx12_Lock_policyE2EED2Ev
	.type	_ZNSt14__shared_countILN9__gnu_cxx12_Lock_policyE2EED2Ev, @function
_ZNSt14__shared_countILN9__gnu_cxx12_Lock_policyE2EED2Ev:
.LFB13892:
	.cfi_startproc
	endbr64
	pushq	%rbp
	.cfi_def_cfa_offset 16
	.cfi_offset 6, -16
	movq	%rsp, %rbp
	.cfi_def_cfa_register 6
	subq	$16, %rsp
	movq	%rdi, -8(%rbp)
	movq	-8(%rbp), %rax
	movq	(%rax), %rax
	testq	%rax, %rax
	je	.L149
	movq	-8(%rbp), %rax
	movq	(%rax), %rax
	movq	%rax, %rdi
	call	_ZNSt16_Sp_counted_baseILN9__gnu_cxx12_Lock_policyE2EE10_M_releaseEv
.L149:
	nop
	leave
	.cfi_def_cfa 7, 8
	ret
	.cfi_endproc
.LFE13892:
	.size	_ZNSt14__shared_countILN9__gnu_cxx12_Lock_policyE2EED2Ev, .-_ZNSt14__shared_countILN9__gnu_cxx12_Lock_policyE2EED2Ev
	.weak	_ZNSt14__shared_countILN9__gnu_cxx12_Lock_policyE2EED1Ev
	.set	_ZNSt14__shared_countILN9__gnu_cxx12_Lock_policyE2EED1Ev,_ZNSt14__shared_countILN9__gnu_cxx12_Lock_policyE2EED2Ev
	.section	.text._ZSt3maxImERKT_S2_S2_,"axG",@progbits,_ZSt3maxImERKT_S2_S2_,comdat
	.weak	_ZSt3maxImERKT_S2_S2_
	.type	_ZSt3maxImERKT_S2_S2_, @function
_ZSt3maxImERKT_S2_S2_:
.LFB14069:
	.cfi_startproc
	endbr64
	pushq	%rbp
	.cfi_def_cfa_offset 16
	.cfi_offset 6, -16
	movq	%rsp, %rbp
	.cfi_def_cfa_register 6
	movq	%rdi, -8(%rbp)
	movq	%rsi, -16(%rbp)
	movq	-8(%rbp), %rax
	movq	(%rax), %rdx
	movq	-16(%rbp), %rax
	movq	(%rax), %rax
	cmpq	%rax, %rdx
	jnb	.L151
	movq	-16(%rbp), %rax
	jmp	.L152
.L151:
	movq	-8(%rbp), %rax
.L152:
	popq	%rbp
	.cfi_def_cfa 7, 8
	ret
	.cfi_endproc
.LFE14069:
	.size	_ZSt3maxImERKT_S2_S2_, .-_ZSt3maxImERKT_S2_S2_
	.section	.text._ZNSt12_Vector_baseINSt7__cxx1112basic_stringIcSt11char_traitsIcESaIcEEESaIS5_EE12_Vector_implC2Ev,"axG",@progbits,_ZNSt12_Vector_baseINSt7__cxx1112basic_stringIcSt11char_traitsIcESaIcEEESaIS5_EE12_Vector_implC5Ev,comdat
	.align 2
	.weak	_ZNSt12_Vector_baseINSt7__cxx1112basic_stringIcSt11char_traitsIcESaIcEEESaIS5_EE12_Vector_implC2Ev
	.type	_ZNSt12_Vector_baseINSt7__cxx1112basic_stringIcSt11char_traitsIcESaIcEEESaIS5_EE12_Vector_implC2Ev, @function
_ZNSt12_Vector_baseINSt7__cxx1112basic_stringIcSt11char_traitsIcESaIcEEESaIS5_EE12_Vector_implC2Ev:
.LFB14104:
	.cfi_startproc
	endbr64
	pushq	%rbp
	.cfi_def_cfa_offset 16
	.cfi_offset 6, -16
	movq	%rsp, %rbp
	.cfi_def_cfa_register 6
	subq	$16, %rsp
	movq	%rdi, -8(%rbp)
	movq	-8(%rbp), %rax
	movq	%rax, %rdi
	call	_ZNSaINSt7__cxx1112basic_stringIcSt11char_traitsIcESaIcEEEEC2Ev
	movq	-8(%rbp), %rax
	movq	%rax, %rdi
	call	_ZNSt12_Vector_baseINSt7__cxx1112basic_stringIcSt11char_traitsIcESaIcEEESaIS5_EE17_Vector_impl_dataC2Ev
	nop
	leave
	.cfi_def_cfa 7, 8
	ret
	.cfi_endproc
.LFE14104:
	.size	_ZNSt12_Vector_baseINSt7__cxx1112basic_stringIcSt11char_traitsIcESaIcEEESaIS5_EE12_Vector_implC2Ev, .-_ZNSt12_Vector_baseINSt7__cxx1112basic_stringIcSt11char_traitsIcESaIcEEESaIS5_EE12_Vector_implC2Ev
	.weak	_ZNSt12_Vector_baseINSt7__cxx1112basic_stringIcSt11char_traitsIcESaIcEEESaIS5_EE12_Vector_implC1Ev
	.set	_ZNSt12_Vector_baseINSt7__cxx1112basic_stringIcSt11char_traitsIcESaIcEEESaIS5_EE12_Vector_implC1Ev,_ZNSt12_Vector_baseINSt7__cxx1112basic_stringIcSt11char_traitsIcESaIcEEESaIS5_EE12_Vector_implC2Ev
	.section	.text._ZNSaINSt7__cxx1112basic_stringIcSt11char_traitsIcESaIcEEEED2Ev,"axG",@progbits,_ZNSaINSt7__cxx1112basic_stringIcSt11char_traitsIcESaIcEEEED5Ev,comdat
	.align 2
	.weak	_ZNSaINSt7__cxx1112basic_stringIcSt11char_traitsIcESaIcEEEED2Ev
	.type	_ZNSaINSt7__cxx1112basic_stringIcSt11char_traitsIcESaIcEEEED2Ev, @function
_ZNSaINSt7__cxx1112basic_stringIcSt11char_traitsIcESaIcEEEED2Ev:
.LFB14107:
	.cfi_startproc
	endbr64
	pushq	%rbp
	.cfi_def_cfa_offset 16
	.cfi_offset 6, -16
	movq	%rsp, %rbp
	.cfi_def_cfa_register 6
	subq	$16, %rsp
	movq	%rdi, -8(%rbp)
	movq	-8(%rbp), %rax
	movq	%rax, %rdi
	call	_ZN9__gnu_cxx13new_allocatorINSt7__cxx1112basic_stringIcSt11char_traitsIcESaIcEEEED2Ev
	nop
	leave
	.cfi_def_cfa 7, 8
	ret
	.cfi_endproc
.LFE14107:
	.size	_ZNSaINSt7__cxx1112basic_stringIcSt11char_traitsIcESaIcEEEED2Ev, .-_ZNSaINSt7__cxx1112basic_stringIcSt11char_traitsIcESaIcEEEED2Ev
	.weak	_ZNSaINSt7__cxx1112basic_stringIcSt11char_traitsIcESaIcEEEED1Ev
	.set	_ZNSaINSt7__cxx1112basic_stringIcSt11char_traitsIcESaIcEEEED1Ev,_ZNSaINSt7__cxx1112basic_stringIcSt11char_traitsIcESaIcEEEED2Ev
	.section	.text._ZNSt12_Vector_baseINSt7__cxx1112basic_stringIcSt11char_traitsIcESaIcEEESaIS5_EED2Ev,"axG",@progbits,_ZNSt12_Vector_baseINSt7__cxx1112basic_stringIcSt11char_traitsIcESaIcEEESaIS5_EED5Ev,comdat
	.align 2
	.weak	_ZNSt12_Vector_baseINSt7__cxx1112basic_stringIcSt11char_traitsIcESaIcEEESaIS5_EED2Ev
	.type	_ZNSt12_Vector_baseINSt7__cxx1112basic_stringIcSt11char_traitsIcESaIcEEESaIS5_EED2Ev, @function
_ZNSt12_Vector_baseINSt7__cxx1112basic_stringIcSt11char_traitsIcESaIcEEESaIS5_EED2Ev:
.LFB14110:
	.cfi_startproc
	.cfi_personality 0x9b,DW.ref.__gxx_personality_v0
	.cfi_lsda 0x1b,.LLSDA14110
	endbr64
	pushq	%rbp
	.cfi_def_cfa_offset 16
	.cfi_offset 6, -16
	movq	%rsp, %rbp
	.cfi_def_cfa_register 6
	subq	$16, %rsp
	movq	%rdi, -8(%rbp)
	movq	-8(%rbp), %rax
	movq	16(%rax), %rdx
	movq	-8(%rbp), %rax
	movq	(%rax), %rax
	subq	%rax, %rdx
	movq	%rdx, %rax
	sarq	$5, %rax
	movq	%rax, %rdx
	movq	-8(%rbp), %rax
	movq	(%rax), %rcx
	movq	-8(%rbp), %rax
	movq	%rcx, %rsi
	movq	%rax, %rdi
	call	_ZNSt12_Vector_baseINSt7__cxx1112basic_stringIcSt11char_traitsIcESaIcEEESaIS5_EE13_M_deallocateEPS5_m
	movq	-8(%rbp), %rax
	movq	%rax, %rdi
	call	_ZNSt12_Vector_baseINSt7__cxx1112basic_stringIcSt11char_traitsIcESaIcEEESaIS5_EE12_Vector_implD1Ev
	nop
	leave
	.cfi_def_cfa 7, 8
	ret
	.cfi_endproc
.LFE14110:
	.section	.gcc_except_table
.LLSDA14110:
	.byte	0xff
	.byte	0xff
	.byte	0x1
	.uleb128 .LLSDACSE14110-.LLSDACSB14110
.LLSDACSB14110:
.LLSDACSE14110:
	.section	.text._ZNSt12_Vector_baseINSt7__cxx1112basic_stringIcSt11char_traitsIcESaIcEEESaIS5_EED2Ev,"axG",@progbits,_ZNSt12_Vector_baseINSt7__cxx1112basic_stringIcSt11char_traitsIcESaIcEEESaIS5_EED5Ev,comdat
	.size	_ZNSt12_Vector_baseINSt7__cxx1112basic_stringIcSt11char_traitsIcESaIcEEESaIS5_EED2Ev, .-_ZNSt12_Vector_baseINSt7__cxx1112basic_stringIcSt11char_traitsIcESaIcEEESaIS5_EED2Ev
	.weak	_ZNSt12_Vector_baseINSt7__cxx1112basic_stringIcSt11char_traitsIcESaIcEEESaIS5_EED1Ev
	.set	_ZNSt12_Vector_baseINSt7__cxx1112basic_stringIcSt11char_traitsIcESaIcEEESaIS5_EED1Ev,_ZNSt12_Vector_baseINSt7__cxx1112basic_stringIcSt11char_traitsIcESaIcEEESaIS5_EED2Ev
	.section	.text._ZNSt6vectorINSt7__cxx1112basic_stringIcSt11char_traitsIcESaIcEEESaIS5_EED2Ev,"axG",@progbits,_ZNSt6vectorINSt7__cxx1112basic_stringIcSt11char_traitsIcESaIcEEESaIS5_EED5Ev,comdat
	.align 2
	.weak	_ZNSt6vectorINSt7__cxx1112basic_stringIcSt11char_traitsIcESaIcEEESaIS5_EED2Ev
	.type	_ZNSt6vectorINSt7__cxx1112basic_stringIcSt11char_traitsIcESaIcEEESaIS5_EED2Ev, @function
_ZNSt6vectorINSt7__cxx1112basic_stringIcSt11char_traitsIcESaIcEEESaIS5_EED2Ev:
.LFB14113:
	.cfi_startproc
	.cfi_personality 0x9b,DW.ref.__gxx_personality_v0
	.cfi_lsda 0x1b,.LLSDA14113
	endbr64
	pushq	%rbp
	.cfi_def_cfa_offset 16
	.cfi_offset 6, -16
	movq	%rsp, %rbp
	.cfi_def_cfa_register 6
	subq	$16, %rsp
	movq	%rdi, -8(%rbp)
	movq	-8(%rbp), %rax
	movq	%rax, %rdi
	call	_ZNSt12_Vector_baseINSt7__cxx1112basic_stringIcSt11char_traitsIcESaIcEEESaIS5_EE19_M_get_Tp_allocatorEv
	movq	%rax, %rdx
	movq	-8(%rbp), %rax
	movq	8(%rax), %rcx
	movq	-8(%rbp), %rax
	movq	(%rax), %rax
	movq	%rcx, %rsi
	movq	%rax, %rdi
	call	_ZSt8_DestroyIPNSt7__cxx1112basic_stringIcSt11char_traitsIcESaIcEEES5_EvT_S7_RSaIT0_E
	movq	-8(%rbp), %rax
	movq	%rax, %rdi
	call	_ZNSt12_Vector_baseINSt7__cxx1112basic_stringIcSt11char_traitsIcESaIcEEESaIS5_EED2Ev
	nop
	leave
	.cfi_def_cfa 7, 8
	ret
	.cfi_endproc
.LFE14113:
	.section	.gcc_except_table
.LLSDA14113:
	.byte	0xff
	.byte	0xff
	.byte	0x1
	.uleb128 .LLSDACSE14113-.LLSDACSB14113
.LLSDACSB14113:
.LLSDACSE14113:
	.section	.text._ZNSt6vectorINSt7__cxx1112basic_stringIcSt11char_traitsIcESaIcEEESaIS5_EED2Ev,"axG",@progbits,_ZNSt6vectorINSt7__cxx1112basic_stringIcSt11char_traitsIcESaIcEEESaIS5_EED5Ev,comdat
	.size	_ZNSt6vectorINSt7__cxx1112basic_stringIcSt11char_traitsIcESaIcEEESaIS5_EED2Ev, .-_ZNSt6vectorINSt7__cxx1112basic_stringIcSt11char_traitsIcESaIcEEESaIS5_EED2Ev
	.weak	_ZNSt6vectorINSt7__cxx1112basic_stringIcSt11char_traitsIcESaIcEEESaIS5_EED1Ev
	.set	_ZNSt6vectorINSt7__cxx1112basic_stringIcSt11char_traitsIcESaIcEEESaIS5_EED1Ev,_ZNSt6vectorINSt7__cxx1112basic_stringIcSt11char_traitsIcESaIcEEESaIS5_EED2Ev
	.section	.text._ZNSt6vectorINSt7__cxx1112basic_stringIcSt11char_traitsIcESaIcEEESaIS5_EE9push_backERKS5_,"axG",@progbits,_ZNSt6vectorINSt7__cxx1112basic_stringIcSt11char_traitsIcESaIcEEESaIS5_EE9push_backERKS5_,comdat
	.align 2
	.weak	_ZNSt6vectorINSt7__cxx1112basic_stringIcSt11char_traitsIcESaIcEEESaIS5_EE9push_backERKS5_
	.type	_ZNSt6vectorINSt7__cxx1112basic_stringIcSt11char_traitsIcESaIcEEESaIS5_EE9push_backERKS5_, @function
_ZNSt6vectorINSt7__cxx1112basic_stringIcSt11char_traitsIcESaIcEEESaIS5_EE9push_backERKS5_:
.LFB14116:
	.cfi_startproc
	endbr64
	pushq	%rbp
	.cfi_def_cfa_offset 16
	.cfi_offset 6, -16
	movq	%rsp, %rbp
	.cfi_def_cfa_register 6
	subq	$16, %rsp
	movq	%rdi, -8(%rbp)
	movq	%rsi, -16(%rbp)
	movq	-8(%rbp), %rax
	movq	8(%rax), %rdx
	movq	-8(%rbp), %rax
	movq	16(%rax), %rax
	cmpq	%rax, %rdx
	je	.L158
	movq	-8(%rbp), %rax
	movq	8(%rax), %rcx
	movq	-8(%rbp), %rax
	movq	-16(%rbp), %rdx
	movq	%rcx, %rsi
	movq	%rax, %rdi
	call	_ZNSt16allocator_traitsISaINSt7__cxx1112basic_stringIcSt11char_traitsIcESaIcEEEEE9constructIS5_JRKS5_EEEvRS6_PT_DpOT0_
	movq	-8(%rbp), %rax
	movq	8(%rax), %rax
	leaq	32(%rax), %rdx
	movq	-8(%rbp), %rax
	movq	%rdx, 8(%rax)
	jmp	.L160
.L158:
	movq	-8(%rbp), %rax
	movq	%rax, %rdi
	call	_ZNSt6vectorINSt7__cxx1112basic_stringIcSt11char_traitsIcESaIcEEESaIS5_EE3endEv
	movq	%rax, %rcx
	movq	-16(%rbp), %rdx
	movq	-8(%rbp), %rax
	movq	%rcx, %rsi
	movq	%rax, %rdi
	call	_ZNSt6vectorINSt7__cxx1112basic_stringIcSt11char_traitsIcESaIcEEESaIS5_EE17_M_realloc_insertIJRKS5_EEEvN9__gnu_cxx17__normal_iteratorIPS5_S7_EEDpOT_
.L160:
	nop
	leave
	.cfi_def_cfa 7, 8
	ret
	.cfi_endproc
.LFE14116:
	.size	_ZNSt6vectorINSt7__cxx1112basic_stringIcSt11char_traitsIcESaIcEEESaIS5_EE9push_backERKS5_, .-_ZNSt6vectorINSt7__cxx1112basic_stringIcSt11char_traitsIcESaIcEEESaIS5_EE9push_backERKS5_
	.section	.text._ZSt11make_sharedI12BenchmarkersJEESt10shared_ptrIT_EDpOT0_,"axG",@progbits,_ZSt11make_sharedI12BenchmarkersJEESt10shared_ptrIT_EDpOT0_,comdat
	.weak	_ZSt11make_sharedI12BenchmarkersJEESt10shared_ptrIT_EDpOT0_
	.type	_ZSt11make_sharedI12BenchmarkersJEESt10shared_ptrIT_EDpOT0_, @function
_ZSt11make_sharedI12BenchmarkersJEESt10shared_ptrIT_EDpOT0_:
.LFB14120:
	.cfi_startproc
	.cfi_personality 0x9b,DW.ref.__gxx_personality_v0
	.cfi_lsda 0x1b,.LLSDA14120
	endbr64
	pushq	%rbp
	.cfi_def_cfa_offset 16
	.cfi_offset 6, -16
	movq	%rsp, %rbp
	.cfi_def_cfa_register 6
	pushq	%rbx
	subq	$40, %rsp
	.cfi_offset 3, -24
	movq	%rdi, -40(%rbp)
	movq	%fs:40, %rax
	movq	%rax, -24(%rbp)
	xorl	%eax, %eax
	leaq	-25(%rbp), %rax
	movq	%rax, %rdi
	call	_ZNSaI12BenchmarkersEC1Ev
	movq	-40(%rbp), %rax
	leaq	-25(%rbp), %rdx
	movq	%rdx, %rsi
	movq	%rax, %rdi
.LEHB26:
	call	_ZSt15allocate_sharedI12BenchmarkersSaIS0_EJEESt10shared_ptrIT_ERKT0_DpOT1_
.LEHE26:
	leaq	-25(%rbp), %rax
	movq	%rax, %rdi
	call	_ZNSaI12BenchmarkersED1Ev
	movq	-24(%rbp), %rax
	xorq	%fs:40, %rax
	je	.L164
	jmp	.L166
.L165:
	endbr64
	movq	%rax, %rbx
	leaq	-25(%rbp), %rax
	movq	%rax, %rdi
	call	_ZNSaI12BenchmarkersED1Ev
	movq	%rbx, %rax
	movq	%rax, %rdi
.LEHB27:
	call	_Unwind_Resume@PLT
.LEHE27:
.L166:
	call	__stack_chk_fail@PLT
.L164:
	movq	-40(%rbp), %rax
	addq	$40, %rsp
	popq	%rbx
	popq	%rbp
	.cfi_def_cfa 7, 8
	ret
	.cfi_endproc
.LFE14120:
	.section	.gcc_except_table
.LLSDA14120:
	.byte	0xff
	.byte	0xff
	.byte	0x1
	.uleb128 .LLSDACSE14120-.LLSDACSB14120
.LLSDACSB14120:
	.uleb128 .LEHB26-.LFB14120
	.uleb128 .LEHE26-.LEHB26
	.uleb128 .L165-.LFB14120
	.uleb128 0
	.uleb128 .LEHB27-.LFB14120
	.uleb128 .LEHE27-.LEHB27
	.uleb128 0
	.uleb128 0
.LLSDACSE14120:
	.section	.text._ZSt11make_sharedI12BenchmarkersJEESt10shared_ptrIT_EDpOT0_,"axG",@progbits,_ZSt11make_sharedI12BenchmarkersJEESt10shared_ptrIT_EDpOT0_,comdat
	.size	_ZSt11make_sharedI12BenchmarkersJEESt10shared_ptrIT_EDpOT0_, .-_ZSt11make_sharedI12BenchmarkersJEESt10shared_ptrIT_EDpOT0_
	.section	.text._ZSt11make_sharedI12RsaEncrytionJEESt10shared_ptrIT_EDpOT0_,"axG",@progbits,_ZSt11make_sharedI12RsaEncrytionJEESt10shared_ptrIT_EDpOT0_,comdat
	.weak	_ZSt11make_sharedI12RsaEncrytionJEESt10shared_ptrIT_EDpOT0_
	.type	_ZSt11make_sharedI12RsaEncrytionJEESt10shared_ptrIT_EDpOT0_, @function
_ZSt11make_sharedI12RsaEncrytionJEESt10shared_ptrIT_EDpOT0_:
.LFB14124:
	.cfi_startproc
	.cfi_personality 0x9b,DW.ref.__gxx_personality_v0
	.cfi_lsda 0x1b,.LLSDA14124
	endbr64
	pushq	%rbp
	.cfi_def_cfa_offset 16
	.cfi_offset 6, -16
	movq	%rsp, %rbp
	.cfi_def_cfa_register 6
	pushq	%rbx
	subq	$40, %rsp
	.cfi_offset 3, -24
	movq	%rdi, -40(%rbp)
	movq	%fs:40, %rax
	movq	%rax, -24(%rbp)
	xorl	%eax, %eax
	leaq	-25(%rbp), %rax
	movq	%rax, %rdi
	call	_ZNSaI12RsaEncrytionEC1Ev
	movq	-40(%rbp), %rax
	leaq	-25(%rbp), %rdx
	movq	%rdx, %rsi
	movq	%rax, %rdi
.LEHB28:
	call	_ZSt15allocate_sharedI12RsaEncrytionSaIS0_EJEESt10shared_ptrIT_ERKT0_DpOT1_
.LEHE28:
	leaq	-25(%rbp), %rax
	movq	%rax, %rdi
	call	_ZNSaI12RsaEncrytionED1Ev
	movq	-24(%rbp), %rax
	xorq	%fs:40, %rax
	je	.L170
	jmp	.L172
.L171:
	endbr64
	movq	%rax, %rbx
	leaq	-25(%rbp), %rax
	movq	%rax, %rdi
	call	_ZNSaI12RsaEncrytionED1Ev
	movq	%rbx, %rax
	movq	%rax, %rdi
.LEHB29:
	call	_Unwind_Resume@PLT
.LEHE29:
.L172:
	call	__stack_chk_fail@PLT
.L170:
	movq	-40(%rbp), %rax
	addq	$40, %rsp
	popq	%rbx
	popq	%rbp
	.cfi_def_cfa 7, 8
	ret
	.cfi_endproc
.LFE14124:
	.section	.gcc_except_table
.LLSDA14124:
	.byte	0xff
	.byte	0xff
	.byte	0x1
	.uleb128 .LLSDACSE14124-.LLSDACSB14124
.LLSDACSB14124:
	.uleb128 .LEHB28-.LFB14124
	.uleb128 .LEHE28-.LEHB28
	.uleb128 .L171-.LFB14124
	.uleb128 0
	.uleb128 .LEHB29-.LFB14124
	.uleb128 .LEHE29-.LEHB29
	.uleb128 0
	.uleb128 0
.LLSDACSE14124:
	.section	.text._ZSt11make_sharedI12RsaEncrytionJEESt10shared_ptrIT_EDpOT0_,"axG",@progbits,_ZSt11make_sharedI12RsaEncrytionJEESt10shared_ptrIT_EDpOT0_,comdat
	.size	_ZSt11make_sharedI12RsaEncrytionJEESt10shared_ptrIT_EDpOT0_, .-_ZSt11make_sharedI12RsaEncrytionJEESt10shared_ptrIT_EDpOT0_
	.section	.text._ZNKSt19__shared_ptr_accessI12RsaEncrytionLN9__gnu_cxx12_Lock_policyE2ELb0ELb0EEptEv,"axG",@progbits,_ZNKSt19__shared_ptr_accessI12RsaEncrytionLN9__gnu_cxx12_Lock_policyE2ELb0ELb0EEptEv,comdat
	.align 2
	.weak	_ZNKSt19__shared_ptr_accessI12RsaEncrytionLN9__gnu_cxx12_Lock_policyE2ELb0ELb0EEptEv
	.type	_ZNKSt19__shared_ptr_accessI12RsaEncrytionLN9__gnu_cxx12_Lock_policyE2ELb0ELb0EEptEv, @function
_ZNKSt19__shared_ptr_accessI12RsaEncrytionLN9__gnu_cxx12_Lock_policyE2ELb0ELb0EEptEv:
.LFB14128:
	.cfi_startproc
	endbr64
	pushq	%rbp
	.cfi_def_cfa_offset 16
	.cfi_offset 6, -16
	movq	%rsp, %rbp
	.cfi_def_cfa_register 6
	subq	$16, %rsp
	movq	%rdi, -8(%rbp)
	movq	-8(%rbp), %rax
	movq	%rax, %rdi
	call	_ZNKSt19__shared_ptr_accessI12RsaEncrytionLN9__gnu_cxx12_Lock_policyE2ELb0ELb0EE6_M_getEv
	leave
	.cfi_def_cfa 7, 8
	ret
	.cfi_endproc
.LFE14128:
	.size	_ZNKSt19__shared_ptr_accessI12RsaEncrytionLN9__gnu_cxx12_Lock_policyE2ELb0ELb0EEptEv, .-_ZNKSt19__shared_ptr_accessI12RsaEncrytionLN9__gnu_cxx12_Lock_policyE2ELb0ELb0EEptEv
	.section	.text._ZNSt6vectorINSt7__cxx1112basic_stringIcSt11char_traitsIcESaIcEEESaIS5_EE5beginEv,"axG",@progbits,_ZNSt6vectorINSt7__cxx1112basic_stringIcSt11char_traitsIcESaIcEEESaIS5_EE5beginEv,comdat
	.align 2
	.weak	_ZNSt6vectorINSt7__cxx1112basic_stringIcSt11char_traitsIcESaIcEEESaIS5_EE5beginEv
	.type	_ZNSt6vectorINSt7__cxx1112basic_stringIcSt11char_traitsIcESaIcEEESaIS5_EE5beginEv, @function
_ZNSt6vectorINSt7__cxx1112basic_stringIcSt11char_traitsIcESaIcEEESaIS5_EE5beginEv:
.LFB14129:
	.cfi_startproc
	endbr64
	pushq	%rbp
	.cfi_def_cfa_offset 16
	.cfi_offset 6, -16
	movq	%rsp, %rbp
	.cfi_def_cfa_register 6
	subq	$32, %rsp
	movq	%rdi, -24(%rbp)
	movq	%fs:40, %rax
	movq	%rax, -8(%rbp)
	xorl	%eax, %eax
	movq	-24(%rbp), %rdx
	leaq	-16(%rbp), %rax
	movq	%rdx, %rsi
	movq	%rax, %rdi
	call	_ZN9__gnu_cxx17__normal_iteratorIPNSt7__cxx1112basic_stringIcSt11char_traitsIcESaIcEEESt6vectorIS6_SaIS6_EEEC1ERKS7_
	movq	-16(%rbp), %rax
	movq	-8(%rbp), %rcx
	xorq	%fs:40, %rcx
	je	.L177
	call	__stack_chk_fail@PLT
.L177:
	leave
	.cfi_def_cfa 7, 8
	ret
	.cfi_endproc
.LFE14129:
	.size	_ZNSt6vectorINSt7__cxx1112basic_stringIcSt11char_traitsIcESaIcEEESaIS5_EE5beginEv, .-_ZNSt6vectorINSt7__cxx1112basic_stringIcSt11char_traitsIcESaIcEEESaIS5_EE5beginEv
	.section	.text._ZNSt6vectorINSt7__cxx1112basic_stringIcSt11char_traitsIcESaIcEEESaIS5_EE3endEv,"axG",@progbits,_ZNSt6vectorINSt7__cxx1112basic_stringIcSt11char_traitsIcESaIcEEESaIS5_EE3endEv,comdat
	.align 2
	.weak	_ZNSt6vectorINSt7__cxx1112basic_stringIcSt11char_traitsIcESaIcEEESaIS5_EE3endEv
	.type	_ZNSt6vectorINSt7__cxx1112basic_stringIcSt11char_traitsIcESaIcEEESaIS5_EE3endEv, @function
_ZNSt6vectorINSt7__cxx1112basic_stringIcSt11char_traitsIcESaIcEEESaIS5_EE3endEv:
.LFB14130:
	.cfi_startproc
	endbr64
	pushq	%rbp
	.cfi_def_cfa_offset 16
	.cfi_offset 6, -16
	movq	%rsp, %rbp
	.cfi_def_cfa_register 6
	subq	$32, %rsp
	movq	%rdi, -24(%rbp)
	movq	%fs:40, %rax
	movq	%rax, -8(%rbp)
	xorl	%eax, %eax
	movq	-24(%rbp), %rax
	leaq	8(%rax), %rdx
	leaq	-16(%rbp), %rax
	movq	%rdx, %rsi
	movq	%rax, %rdi
	call	_ZN9__gnu_cxx17__normal_iteratorIPNSt7__cxx1112basic_stringIcSt11char_traitsIcESaIcEEESt6vectorIS6_SaIS6_EEEC1ERKS7_
	movq	-16(%rbp), %rax
	movq	-8(%rbp), %rcx
	xorq	%fs:40, %rcx
	je	.L180
	call	__stack_chk_fail@PLT
.L180:
	leave
	.cfi_def_cfa 7, 8
	ret
	.cfi_endproc
.LFE14130:
	.size	_ZNSt6vectorINSt7__cxx1112basic_stringIcSt11char_traitsIcESaIcEEESaIS5_EE3endEv, .-_ZNSt6vectorINSt7__cxx1112basic_stringIcSt11char_traitsIcESaIcEEESaIS5_EE3endEv
	.section	.text._ZN9__gnu_cxxneIPNSt7__cxx1112basic_stringIcSt11char_traitsIcESaIcEEESt6vectorIS6_SaIS6_EEEEbRKNS_17__normal_iteratorIT_T0_EESG_,"axG",@progbits,_ZN9__gnu_cxxneIPNSt7__cxx1112basic_stringIcSt11char_traitsIcESaIcEEESt6vectorIS6_SaIS6_EEEEbRKNS_17__normal_iteratorIT_T0_EESG_,comdat
	.weak	_ZN9__gnu_cxxneIPNSt7__cxx1112basic_stringIcSt11char_traitsIcESaIcEEESt6vectorIS6_SaIS6_EEEEbRKNS_17__normal_iteratorIT_T0_EESG_
	.type	_ZN9__gnu_cxxneIPNSt7__cxx1112basic_stringIcSt11char_traitsIcESaIcEEESt6vectorIS6_SaIS6_EEEEbRKNS_17__normal_iteratorIT_T0_EESG_, @function
_ZN9__gnu_cxxneIPNSt7__cxx1112basic_stringIcSt11char_traitsIcESaIcEEESt6vectorIS6_SaIS6_EEEEbRKNS_17__normal_iteratorIT_T0_EESG_:
.LFB14131:
	.cfi_startproc
	endbr64
	pushq	%rbp
	.cfi_def_cfa_offset 16
	.cfi_offset 6, -16
	movq	%rsp, %rbp
	.cfi_def_cfa_register 6
	pushq	%rbx
	subq	$24, %rsp
	.cfi_offset 3, -24
	movq	%rdi, -24(%rbp)
	movq	%rsi, -32(%rbp)
	movq	-24(%rbp), %rax
	movq	%rax, %rdi
	call	_ZNK9__gnu_cxx17__normal_iteratorIPNSt7__cxx1112basic_stringIcSt11char_traitsIcESaIcEEESt6vectorIS6_SaIS6_EEE4baseEv
	movq	(%rax), %rbx
	movq	-32(%rbp), %rax
	movq	%rax, %rdi
	call	_ZNK9__gnu_cxx17__normal_iteratorIPNSt7__cxx1112basic_stringIcSt11char_traitsIcESaIcEEESt6vectorIS6_SaIS6_EEE4baseEv
	movq	(%rax), %rax
	cmpq	%rax, %rbx
	setne	%al
	addq	$24, %rsp
	popq	%rbx
	popq	%rbp
	.cfi_def_cfa 7, 8
	ret
	.cfi_endproc
.LFE14131:
	.size	_ZN9__gnu_cxxneIPNSt7__cxx1112basic_stringIcSt11char_traitsIcESaIcEEESt6vectorIS6_SaIS6_EEEEbRKNS_17__normal_iteratorIT_T0_EESG_, .-_ZN9__gnu_cxxneIPNSt7__cxx1112basic_stringIcSt11char_traitsIcESaIcEEESt6vectorIS6_SaIS6_EEEEbRKNS_17__normal_iteratorIT_T0_EESG_
	.section	.text._ZN9__gnu_cxx17__normal_iteratorIPNSt7__cxx1112basic_stringIcSt11char_traitsIcESaIcEEESt6vectorIS6_SaIS6_EEEppEv,"axG",@progbits,_ZN9__gnu_cxx17__normal_iteratorIPNSt7__cxx1112basic_stringIcSt11char_traitsIcESaIcEEESt6vectorIS6_SaIS6_EEEppEv,comdat
	.align 2
	.weak	_ZN9__gnu_cxx17__normal_iteratorIPNSt7__cxx1112basic_stringIcSt11char_traitsIcESaIcEEESt6vectorIS6_SaIS6_EEEppEv
	.type	_ZN9__gnu_cxx17__normal_iteratorIPNSt7__cxx1112basic_stringIcSt11char_traitsIcESaIcEEESt6vectorIS6_SaIS6_EEEppEv, @function
_ZN9__gnu_cxx17__normal_iteratorIPNSt7__cxx1112basic_stringIcSt11char_traitsIcESaIcEEESt6vectorIS6_SaIS6_EEEppEv:
.LFB14132:
	.cfi_startproc
	endbr64
	pushq	%rbp
	.cfi_def_cfa_offset 16
	.cfi_offset 6, -16
	movq	%rsp, %rbp
	.cfi_def_cfa_register 6
	movq	%rdi, -8(%rbp)
	movq	-8(%rbp), %rax
	movq	(%rax), %rax
	leaq	32(%rax), %rdx
	movq	-8(%rbp), %rax
	movq	%rdx, (%rax)
	movq	-8(%rbp), %rax
	popq	%rbp
	.cfi_def_cfa 7, 8
	ret
	.cfi_endproc
.LFE14132:
	.size	_ZN9__gnu_cxx17__normal_iteratorIPNSt7__cxx1112basic_stringIcSt11char_traitsIcESaIcEEESt6vectorIS6_SaIS6_EEEppEv, .-_ZN9__gnu_cxx17__normal_iteratorIPNSt7__cxx1112basic_stringIcSt11char_traitsIcESaIcEEESt6vectorIS6_SaIS6_EEEppEv
	.section	.text._ZNK9__gnu_cxx17__normal_iteratorIPNSt7__cxx1112basic_stringIcSt11char_traitsIcESaIcEEESt6vectorIS6_SaIS6_EEEdeEv,"axG",@progbits,_ZNK9__gnu_cxx17__normal_iteratorIPNSt7__cxx1112basic_stringIcSt11char_traitsIcESaIcEEESt6vectorIS6_SaIS6_EEEdeEv,comdat
	.align 2
	.weak	_ZNK9__gnu_cxx17__normal_iteratorIPNSt7__cxx1112basic_stringIcSt11char_traitsIcESaIcEEESt6vectorIS6_SaIS6_EEEdeEv
	.type	_ZNK9__gnu_cxx17__normal_iteratorIPNSt7__cxx1112basic_stringIcSt11char_traitsIcESaIcEEESt6vectorIS6_SaIS6_EEEdeEv, @function
_ZNK9__gnu_cxx17__normal_iteratorIPNSt7__cxx1112basic_stringIcSt11char_traitsIcESaIcEEESt6vectorIS6_SaIS6_EEEdeEv:
.LFB14133:
	.cfi_startproc
	endbr64
	pushq	%rbp
	.cfi_def_cfa_offset 16
	.cfi_offset 6, -16
	movq	%rsp, %rbp
	.cfi_def_cfa_register 6
	movq	%rdi, -8(%rbp)
	movq	-8(%rbp), %rax
	movq	(%rax), %rax
	popq	%rbp
	.cfi_def_cfa 7, 8
	ret
	.cfi_endproc
.LFE14133:
	.size	_ZNK9__gnu_cxx17__normal_iteratorIPNSt7__cxx1112basic_stringIcSt11char_traitsIcESaIcEEESt6vectorIS6_SaIS6_EEEdeEv, .-_ZNK9__gnu_cxx17__normal_iteratorIPNSt7__cxx1112basic_stringIcSt11char_traitsIcESaIcEEESt6vectorIS6_SaIS6_EEEdeEv
	.section	.text._ZNKSt19__shared_ptr_accessI12BenchmarkersLN9__gnu_cxx12_Lock_policyE2ELb0ELb0EEptEv,"axG",@progbits,_ZNKSt19__shared_ptr_accessI12BenchmarkersLN9__gnu_cxx12_Lock_policyE2ELb0ELb0EEptEv,comdat
	.align 2
	.weak	_ZNKSt19__shared_ptr_accessI12BenchmarkersLN9__gnu_cxx12_Lock_policyE2ELb0ELb0EEptEv
	.type	_ZNKSt19__shared_ptr_accessI12BenchmarkersLN9__gnu_cxx12_Lock_policyE2ELb0ELb0EEptEv, @function
_ZNKSt19__shared_ptr_accessI12BenchmarkersLN9__gnu_cxx12_Lock_policyE2ELb0ELb0EEptEv:
.LFB14138:
	.cfi_startproc
	endbr64
	pushq	%rbp
	.cfi_def_cfa_offset 16
	.cfi_offset 6, -16
	movq	%rsp, %rbp
	.cfi_def_cfa_register 6
	subq	$16, %rsp
	movq	%rdi, -8(%rbp)
	movq	-8(%rbp), %rax
	movq	%rax, %rdi
	call	_ZNKSt19__shared_ptr_accessI12BenchmarkersLN9__gnu_cxx12_Lock_policyE2ELb0ELb0EE6_M_getEv
	leave
	.cfi_def_cfa 7, 8
	ret
	.cfi_endproc
.LFE14138:
	.size	_ZNKSt19__shared_ptr_accessI12BenchmarkersLN9__gnu_cxx12_Lock_policyE2ELb0ELb0EEptEv, .-_ZNKSt19__shared_ptr_accessI12BenchmarkersLN9__gnu_cxx12_Lock_policyE2ELb0ELb0EEptEv
	.section	.text._ZNSt6chrono20__duration_cast_implINS_8durationIlSt5ratioILl1ELl1000EEEES2_ILl1ELl1000000EElLb1ELb0EE6__castIlS2_ILl1ELl1000000000EEEES4_RKNS1_IT_T0_EE,"axG",@progbits,_ZNSt6chrono20__duration_cast_implINS_8durationIlSt5ratioILl1ELl1000EEEES2_ILl1ELl1000000EElLb1ELb0EE6__castIlS2_ILl1ELl1000000000EEEES4_RKNS1_IT_T0_EE,comdat
	.weak	_ZNSt6chrono20__duration_cast_implINS_8durationIlSt5ratioILl1ELl1000EEEES2_ILl1ELl1000000EElLb1ELb0EE6__castIlS2_ILl1ELl1000000000EEEES4_RKNS1_IT_T0_EE
	.type	_ZNSt6chrono20__duration_cast_implINS_8durationIlSt5ratioILl1ELl1000EEEES2_ILl1ELl1000000EElLb1ELb0EE6__castIlS2_ILl1ELl1000000000EEEES4_RKNS1_IT_T0_EE, @function
_ZNSt6chrono20__duration_cast_implINS_8durationIlSt5ratioILl1ELl1000EEEES2_ILl1ELl1000000EElLb1ELb0EE6__castIlS2_ILl1ELl1000000000EEEES4_RKNS1_IT_T0_EE:
.LFB14139:
	.cfi_startproc
	endbr64
	pushq	%rbp
	.cfi_def_cfa_offset 16
	.cfi_offset 6, -16
	movq	%rsp, %rbp
	.cfi_def_cfa_register 6
	subq	$48, %rsp
	movq	%rdi, -40(%rbp)
	movq	%fs:40, %rax
	movq	%rax, -8(%rbp)
	xorl	%eax, %eax
	movq	-40(%rbp), %rax
	movq	%rax, %rdi
	call	_ZNKSt6chrono8durationIlSt5ratioILl1ELl1000000000EEE5countEv
	movq	%rax, %rcx
	movabsq	$4835703278458516699, %rdx
	movq	%rcx, %rax
	imulq	%rdx
	sarq	$18, %rdx
	movq	%rcx, %rax
	sarq	$63, %rax
	subq	%rax, %rdx
	movq	%rdx, %rax
	movq	%rax, -24(%rbp)
	leaq	-24(%rbp), %rdx
	leaq	-16(%rbp), %rax
	movq	%rdx, %rsi
	movq	%rax, %rdi
	call	_ZNSt6chrono8durationIlSt5ratioILl1ELl1000EEEC1IlvEERKT_
	movq	-16(%rbp), %rax
	movq	-8(%rbp), %rsi
	xorq	%fs:40, %rsi
	je	.L191
	call	__stack_chk_fail@PLT
.L191:
	leave
	.cfi_def_cfa 7, 8
	ret
	.cfi_endproc
.LFE14139:
	.size	_ZNSt6chrono20__duration_cast_implINS_8durationIlSt5ratioILl1ELl1000EEEES2_ILl1ELl1000000EElLb1ELb0EE6__castIlS2_ILl1ELl1000000000EEEES4_RKNS1_IT_T0_EE, .-_ZNSt6chrono20__duration_cast_implINS_8durationIlSt5ratioILl1ELl1000EEEES2_ILl1ELl1000000EElLb1ELb0EE6__castIlS2_ILl1ELl1000000000EEEES4_RKNS1_IT_T0_EE
	.section	.text._ZNSt6chrono8durationIlSt5ratioILl1ELl1EEEC2IivEERKT_,"axG",@progbits,_ZNSt6chrono8durationIlSt5ratioILl1ELl1EEEC5IivEERKT_,comdat
	.align 2
	.weak	_ZNSt6chrono8durationIlSt5ratioILl1ELl1EEEC2IivEERKT_
	.type	_ZNSt6chrono8durationIlSt5ratioILl1ELl1EEEC2IivEERKT_, @function
_ZNSt6chrono8durationIlSt5ratioILl1ELl1EEEC2IivEERKT_:
.LFB14141:
	.cfi_startproc
	endbr64
	pushq	%rbp
	.cfi_def_cfa_offset 16
	.cfi_offset 6, -16
	movq	%rsp, %rbp
	.cfi_def_cfa_register 6
	movq	%rdi, -8(%rbp)
	movq	%rsi, -16(%rbp)
	movq	-16(%rbp), %rax
	movl	(%rax), %eax
	movslq	%eax, %rdx
	movq	-8(%rbp), %rax
	movq	%rdx, (%rax)
	nop
	popq	%rbp
	.cfi_def_cfa 7, 8
	ret
	.cfi_endproc
.LFE14141:
	.size	_ZNSt6chrono8durationIlSt5ratioILl1ELl1EEEC2IivEERKT_, .-_ZNSt6chrono8durationIlSt5ratioILl1ELl1EEEC2IivEERKT_
	.weak	_ZNSt6chrono8durationIlSt5ratioILl1ELl1EEEC1IivEERKT_
	.set	_ZNSt6chrono8durationIlSt5ratioILl1ELl1EEEC1IivEERKT_,_ZNSt6chrono8durationIlSt5ratioILl1ELl1EEEC2IivEERKT_
	.section	.text._ZNSt6chronoleIlSt5ratioILl1ELl1EElS2_EEbRKNS_8durationIT_T0_EERKNS3_IT1_T2_EE,"axG",@progbits,_ZNSt6chronoleIlSt5ratioILl1ELl1EElS2_EEbRKNS_8durationIT_T0_EERKNS3_IT1_T2_EE,comdat
	.weak	_ZNSt6chronoleIlSt5ratioILl1ELl1EElS2_EEbRKNS_8durationIT_T0_EERKNS3_IT1_T2_EE
	.type	_ZNSt6chronoleIlSt5ratioILl1ELl1EElS2_EEbRKNS_8durationIT_T0_EERKNS3_IT1_T2_EE, @function
_ZNSt6chronoleIlSt5ratioILl1ELl1EElS2_EEbRKNS_8durationIT_T0_EERKNS3_IT1_T2_EE:
.LFB14144:
	.cfi_startproc
	endbr64
	pushq	%rbp
	.cfi_def_cfa_offset 16
	.cfi_offset 6, -16
	movq	%rsp, %rbp
	.cfi_def_cfa_register 6
	subq	$16, %rsp
	movq	%rdi, -8(%rbp)
	movq	%rsi, -16(%rbp)
	movq	-8(%rbp), %rdx
	movq	-16(%rbp), %rax
	movq	%rdx, %rsi
	movq	%rax, %rdi
	call	_ZNSt6chronoltIlSt5ratioILl1ELl1EElS2_EEbRKNS_8durationIT_T0_EERKNS3_IT1_T2_EE
	xorl	$1, %eax
	leave
	.cfi_def_cfa 7, 8
	ret
	.cfi_endproc
.LFE14144:
	.size	_ZNSt6chronoleIlSt5ratioILl1ELl1EElS2_EEbRKNS_8durationIT_T0_EERKNS3_IT1_T2_EE, .-_ZNSt6chronoleIlSt5ratioILl1ELl1EElS2_EEbRKNS_8durationIT_T0_EERKNS3_IT1_T2_EE
	.section	.text._ZNSt6chrono8durationIlSt5ratioILl1ELl1EEE4zeroEv,"axG",@progbits,_ZNSt6chrono8durationIlSt5ratioILl1ELl1EEE4zeroEv,comdat
	.weak	_ZNSt6chrono8durationIlSt5ratioILl1ELl1EEE4zeroEv
	.type	_ZNSt6chrono8durationIlSt5ratioILl1ELl1EEE4zeroEv, @function
_ZNSt6chrono8durationIlSt5ratioILl1ELl1EEE4zeroEv:
.LFB14145:
	.cfi_startproc
	endbr64
	pushq	%rbp
	.cfi_def_cfa_offset 16
	.cfi_offset 6, -16
	movq	%rsp, %rbp
	.cfi_def_cfa_register 6
	subq	$32, %rsp
	movq	%fs:40, %rax
	movq	%rax, -8(%rbp)
	xorl	%eax, %eax
	call	_ZNSt6chrono15duration_valuesIlE4zeroEv
	movq	%rax, -24(%rbp)
	leaq	-24(%rbp), %rdx
	leaq	-16(%rbp), %rax
	movq	%rdx, %rsi
	movq	%rax, %rdi
	call	_ZNSt6chrono8durationIlSt5ratioILl1ELl1EEEC1IlvEERKT_
	movq	-16(%rbp), %rax
	movq	-8(%rbp), %rcx
	xorq	%fs:40, %rcx
	je	.L197
	call	__stack_chk_fail@PLT
.L197:
	leave
	.cfi_def_cfa 7, 8
	ret
	.cfi_endproc
.LFE14145:
	.size	_ZNSt6chrono8durationIlSt5ratioILl1ELl1EEE4zeroEv, .-_ZNSt6chrono8durationIlSt5ratioILl1ELl1EEE4zeroEv
	.section	.text._ZNSt6chronoltIlSt5ratioILl1ELl1EElS2_EEbRKNS_8durationIT_T0_EERKNS3_IT1_T2_EE,"axG",@progbits,_ZNSt6chronoltIlSt5ratioILl1ELl1EElS2_EEbRKNS_8durationIT_T0_EERKNS3_IT1_T2_EE,comdat
	.weak	_ZNSt6chronoltIlSt5ratioILl1ELl1EElS2_EEbRKNS_8durationIT_T0_EERKNS3_IT1_T2_EE
	.type	_ZNSt6chronoltIlSt5ratioILl1ELl1EElS2_EEbRKNS_8durationIT_T0_EERKNS3_IT1_T2_EE, @function
_ZNSt6chronoltIlSt5ratioILl1ELl1EElS2_EEbRKNS_8durationIT_T0_EERKNS3_IT1_T2_EE:
.LFB14146:
	.cfi_startproc
	endbr64
	pushq	%rbp
	.cfi_def_cfa_offset 16
	.cfi_offset 6, -16
	movq	%rsp, %rbp
	.cfi_def_cfa_register 6
	pushq	%rbx
	subq	$56, %rsp
	.cfi_offset 3, -24
	movq	%rdi, -56(%rbp)
	movq	%rsi, -64(%rbp)
	movq	%fs:40, %rax
	movq	%rax, -24(%rbp)
	xorl	%eax, %eax
	movq	-56(%rbp), %rax
	movq	(%rax), %rax
	movq	%rax, -40(%rbp)
	leaq	-40(%rbp), %rax
	movq	%rax, %rdi
	call	_ZNKSt6chrono8durationIlSt5ratioILl1ELl1EEE5countEv
	movq	%rax, %rbx
	movq	-64(%rbp), %rax
	movq	(%rax), %rax
	movq	%rax, -32(%rbp)
	leaq	-32(%rbp), %rax
	movq	%rax, %rdi
	call	_ZNKSt6chrono8durationIlSt5ratioILl1ELl1EEE5countEv
	cmpq	%rax, %rbx
	setl	%al
	movq	-24(%rbp), %rdx
	xorq	%fs:40, %rdx
	je	.L200
	call	__stack_chk_fail@PLT
.L200:
	addq	$56, %rsp
	popq	%rbx
	popq	%rbp
	.cfi_def_cfa 7, 8
	ret
	.cfi_endproc
.LFE14146:
	.size	_ZNSt6chronoltIlSt5ratioILl1ELl1EElS2_EEbRKNS_8durationIT_T0_EERKNS3_IT1_T2_EE, .-_ZNSt6chronoltIlSt5ratioILl1ELl1EElS2_EEbRKNS_8durationIT_T0_EERKNS3_IT1_T2_EE
	.section	.text._ZNSt6chrono13duration_castINS_8durationIlSt5ratioILl1ELl1EEEElS3_EENSt9enable_ifIXsrNS_13__is_durationIT_EE5valueES7_E4typeERKNS1_IT0_T1_EE,"axG",@progbits,_ZNSt6chrono13duration_castINS_8durationIlSt5ratioILl1ELl1EEEElS3_EENSt9enable_ifIXsrNS_13__is_durationIT_EE5valueES7_E4typeERKNS1_IT0_T1_EE,comdat
	.weak	_ZNSt6chrono13duration_castINS_8durationIlSt5ratioILl1ELl1EEEElS3_EENSt9enable_ifIXsrNS_13__is_durationIT_EE5valueES7_E4typeERKNS1_IT0_T1_EE
	.type	_ZNSt6chrono13duration_castINS_8durationIlSt5ratioILl1ELl1EEEElS3_EENSt9enable_ifIXsrNS_13__is_durationIT_EE5valueES7_E4typeERKNS1_IT0_T1_EE, @function
_ZNSt6chrono13duration_castINS_8durationIlSt5ratioILl1ELl1EEEElS3_EENSt9enable_ifIXsrNS_13__is_durationIT_EE5valueES7_E4typeERKNS1_IT0_T1_EE:
.LFB14147:
	.cfi_startproc
	endbr64
	pushq	%rbp
	.cfi_def_cfa_offset 16
	.cfi_offset 6, -16
	movq	%rsp, %rbp
	.cfi_def_cfa_register 6
	subq	$16, %rsp
	movq	%rdi, -8(%rbp)
	movq	-8(%rbp), %rax
	movq	%rax, %rdi
	call	_ZNSt6chrono20__duration_cast_implINS_8durationIlSt5ratioILl1ELl1EEEES3_lLb1ELb1EE6__castIlS3_EES4_RKNS1_IT_T0_EE
	leave
	.cfi_def_cfa 7, 8
	ret
	.cfi_endproc
.LFE14147:
	.size	_ZNSt6chrono13duration_castINS_8durationIlSt5ratioILl1ELl1EEEElS3_EENSt9enable_ifIXsrNS_13__is_durationIT_EE5valueES7_E4typeERKNS1_IT0_T1_EE, .-_ZNSt6chrono13duration_castINS_8durationIlSt5ratioILl1ELl1EEEElS3_EENSt9enable_ifIXsrNS_13__is_durationIT_EE5valueES7_E4typeERKNS1_IT0_T1_EE
	.section	.text._ZNSt6chrono20__duration_cast_implINS_8durationIlSt5ratioILl1ELl1EEEES3_lLb1ELb1EE6__castIlS3_EES4_RKNS1_IT_T0_EE,"axG",@progbits,_ZNSt6chrono20__duration_cast_implINS_8durationIlSt5ratioILl1ELl1EEEES3_lLb1ELb1EE6__castIlS3_EES4_RKNS1_IT_T0_EE,comdat
	.weak	_ZNSt6chrono20__duration_cast_implINS_8durationIlSt5ratioILl1ELl1EEEES3_lLb1ELb1EE6__castIlS3_EES4_RKNS1_IT_T0_EE
	.type	_ZNSt6chrono20__duration_cast_implINS_8durationIlSt5ratioILl1ELl1EEEES3_lLb1ELb1EE6__castIlS3_EES4_RKNS1_IT_T0_EE, @function
_ZNSt6chrono20__duration_cast_implINS_8durationIlSt5ratioILl1ELl1EEEES3_lLb1ELb1EE6__castIlS3_EES4_RKNS1_IT_T0_EE:
.LFB14148:
	.cfi_startproc
	endbr64
	pushq	%rbp
	.cfi_def_cfa_offset 16
	.cfi_offset 6, -16
	movq	%rsp, %rbp
	.cfi_def_cfa_register 6
	subq	$48, %rsp
	movq	%rdi, -40(%rbp)
	movq	%fs:40, %rax
	movq	%rax, -8(%rbp)
	xorl	%eax, %eax
	movq	-40(%rbp), %rax
	movq	%rax, %rdi
	call	_ZNKSt6chrono8durationIlSt5ratioILl1ELl1EEE5countEv
	movq	%rax, -24(%rbp)
	leaq	-24(%rbp), %rdx
	leaq	-16(%rbp), %rax
	movq	%rdx, %rsi
	movq	%rax, %rdi
	call	_ZNSt6chrono8durationIlSt5ratioILl1ELl1EEEC1IlvEERKT_
	movq	-16(%rbp), %rax
	movq	-8(%rbp), %rcx
	xorq	%fs:40, %rcx
	je	.L205
	call	__stack_chk_fail@PLT
.L205:
	leave
	.cfi_def_cfa 7, 8
	ret
	.cfi_endproc
.LFE14148:
	.size	_ZNSt6chrono20__duration_cast_implINS_8durationIlSt5ratioILl1ELl1EEEES3_lLb1ELb1EE6__castIlS3_EES4_RKNS1_IT_T0_EE, .-_ZNSt6chrono20__duration_cast_implINS_8durationIlSt5ratioILl1ELl1EEEES3_lLb1ELb1EE6__castIlS3_EES4_RKNS1_IT_T0_EE
	.section	.text._ZNSt6chrono13duration_castINS_8durationIlSt5ratioILl1ELl1000000000EEEElS2_ILl1ELl1EEEENSt9enable_ifIXsrNS_13__is_durationIT_EE5valueES8_E4typeERKNS1_IT0_T1_EE,"axG",@progbits,_ZNSt6chrono13duration_castINS_8durationIlSt5ratioILl1ELl1000000000EEEElS2_ILl1ELl1EEEENSt9enable_ifIXsrNS_13__is_durationIT_EE5valueES8_E4typeERKNS1_IT0_T1_EE,comdat
	.weak	_ZNSt6chrono13duration_castINS_8durationIlSt5ratioILl1ELl1000000000EEEElS2_ILl1ELl1EEEENSt9enable_ifIXsrNS_13__is_durationIT_EE5valueES8_E4typeERKNS1_IT0_T1_EE
	.type	_ZNSt6chrono13duration_castINS_8durationIlSt5ratioILl1ELl1000000000EEEElS2_ILl1ELl1EEEENSt9enable_ifIXsrNS_13__is_durationIT_EE5valueES8_E4typeERKNS1_IT0_T1_EE, @function
_ZNSt6chrono13duration_castINS_8durationIlSt5ratioILl1ELl1000000000EEEElS2_ILl1ELl1EEEENSt9enable_ifIXsrNS_13__is_durationIT_EE5valueES8_E4typeERKNS1_IT0_T1_EE:
.LFB14149:
	.cfi_startproc
	endbr64
	pushq	%rbp
	.cfi_def_cfa_offset 16
	.cfi_offset 6, -16
	movq	%rsp, %rbp
	.cfi_def_cfa_register 6
	subq	$16, %rsp
	movq	%rdi, -8(%rbp)
	movq	-8(%rbp), %rax
	movq	%rax, %rdi
	call	_ZNSt6chrono20__duration_cast_implINS_8durationIlSt5ratioILl1ELl1000000000EEEES2_ILl1000000000ELl1EElLb0ELb1EE6__castIlS2_ILl1ELl1EEEES4_RKNS1_IT_T0_EE
	leave
	.cfi_def_cfa 7, 8
	ret
	.cfi_endproc
.LFE14149:
	.size	_ZNSt6chrono13duration_castINS_8durationIlSt5ratioILl1ELl1000000000EEEElS2_ILl1ELl1EEEENSt9enable_ifIXsrNS_13__is_durationIT_EE5valueES8_E4typeERKNS1_IT0_T1_EE, .-_ZNSt6chrono13duration_castINS_8durationIlSt5ratioILl1ELl1000000000EEEElS2_ILl1ELl1EEEENSt9enable_ifIXsrNS_13__is_durationIT_EE5valueES8_E4typeERKNS1_IT0_T1_EE
	.section	.text._ZNSt6chronomiIlSt5ratioILl1ELl1EElS2_EENSt11common_typeIJNS_8durationIT_T0_EENS4_IT1_T2_EEEE4typeERKS7_RKSA_,"axG",@progbits,_ZNSt6chronomiIlSt5ratioILl1ELl1EElS2_EENSt11common_typeIJNS_8durationIT_T0_EENS4_IT1_T2_EEEE4typeERKS7_RKSA_,comdat
	.weak	_ZNSt6chronomiIlSt5ratioILl1ELl1EElS2_EENSt11common_typeIJNS_8durationIT_T0_EENS4_IT1_T2_EEEE4typeERKS7_RKSA_
	.type	_ZNSt6chronomiIlSt5ratioILl1ELl1EElS2_EENSt11common_typeIJNS_8durationIT_T0_EENS4_IT1_T2_EEEE4typeERKS7_RKSA_, @function
_ZNSt6chronomiIlSt5ratioILl1ELl1EElS2_EENSt11common_typeIJNS_8durationIT_T0_EENS4_IT1_T2_EEEE4typeERKS7_RKSA_:
.LFB14150:
	.cfi_startproc
	endbr64
	pushq	%rbp
	.cfi_def_cfa_offset 16
	.cfi_offset 6, -16
	movq	%rsp, %rbp
	.cfi_def_cfa_register 6
	pushq	%rbx
	subq	$72, %rsp
	.cfi_offset 3, -24
	movq	%rdi, -72(%rbp)
	movq	%rsi, -80(%rbp)
	movq	%fs:40, %rax
	movq	%rax, -24(%rbp)
	xorl	%eax, %eax
	movq	-72(%rbp), %rax
	movq	(%rax), %rax
	movq	%rax, -56(%rbp)
	leaq	-56(%rbp), %rax
	movq	%rax, %rdi
	call	_ZNKSt6chrono8durationIlSt5ratioILl1ELl1EEE5countEv
	movq	%rax, %rbx
	movq	-80(%rbp), %rax
	movq	(%rax), %rax
	movq	%rax, -48(%rbp)
	leaq	-48(%rbp), %rax
	movq	%rax, %rdi
	call	_ZNKSt6chrono8durationIlSt5ratioILl1ELl1EEE5countEv
	subq	%rax, %rbx
	movq	%rbx, %rax
	movq	%rax, -40(%rbp)
	leaq	-40(%rbp), %rdx
	leaq	-32(%rbp), %rax
	movq	%rdx, %rsi
	movq	%rax, %rdi
	call	_ZNSt6chrono8durationIlSt5ratioILl1ELl1EEEC1IlvEERKT_
	movq	-32(%rbp), %rax
	movq	-24(%rbp), %rcx
	xorq	%fs:40, %rcx
	je	.L210
	call	__stack_chk_fail@PLT
.L210:
	addq	$72, %rsp
	popq	%rbx
	popq	%rbp
	.cfi_def_cfa 7, 8
	ret
	.cfi_endproc
.LFE14150:
	.size	_ZNSt6chronomiIlSt5ratioILl1ELl1EElS2_EENSt11common_typeIJNS_8durationIT_T0_EENS4_IT1_T2_EEEE4typeERKS7_RKSA_, .-_ZNSt6chronomiIlSt5ratioILl1ELl1EElS2_EENSt11common_typeIJNS_8durationIT_T0_EENS4_IT1_T2_EEEE4typeERKS7_RKSA_
	.section	.text._ZNSt11this_thread9sleep_forIlSt5ratioILl1ELl1EEEEvRKNSt6chrono8durationIT_T0_EE,"axG",@progbits,_ZNSt11this_thread9sleep_forIlSt5ratioILl1ELl1EEEEvRKNSt6chrono8durationIT_T0_EE,comdat
	.weak	_ZNSt11this_thread9sleep_forIlSt5ratioILl1ELl1EEEEvRKNSt6chrono8durationIT_T0_EE
	.type	_ZNSt11this_thread9sleep_forIlSt5ratioILl1ELl1EEEEvRKNSt6chrono8durationIT_T0_EE, @function
_ZNSt11this_thread9sleep_forIlSt5ratioILl1ELl1EEEEvRKNSt6chrono8durationIT_T0_EE:
.LFB14143:
	.cfi_startproc
	endbr64
	pushq	%rbp
	.cfi_def_cfa_offset 16
	.cfi_offset 6, -16
	movq	%rsp, %rbp
	.cfi_def_cfa_register 6
	subq	$64, %rsp
	movq	%rdi, -56(%rbp)
	movq	%fs:40, %rax
	movq	%rax, -8(%rbp)
	xorl	%eax, %eax
	call	_ZNSt6chrono8durationIlSt5ratioILl1ELl1EEE4zeroEv
	movq	%rax, -32(%rbp)
	leaq	-32(%rbp), %rdx
	movq	-56(%rbp), %rax
	movq	%rdx, %rsi
	movq	%rax, %rdi
	call	_ZNSt6chronoleIlSt5ratioILl1ELl1EElS2_EEbRKNS_8durationIT_T0_EERKNS3_IT1_T2_EE
	testb	%al, %al
	jne	.L219
	movq	-56(%rbp), %rax
	movq	%rax, %rdi
	call	_ZNSt6chrono13duration_castINS_8durationIlSt5ratioILl1ELl1EEEElS3_EENSt9enable_ifIXsrNS_13__is_durationIT_EE5valueES7_E4typeERKNS1_IT0_T1_EE
	movq	%rax, -48(%rbp)
	leaq	-48(%rbp), %rdx
	movq	-56(%rbp), %rax
	movq	%rdx, %rsi
	movq	%rax, %rdi
	call	_ZNSt6chronomiIlSt5ratioILl1ELl1EElS2_EENSt11common_typeIJNS_8durationIT_T0_EENS4_IT1_T2_EEEE4typeERKS7_RKSA_
	movq	%rax, -32(%rbp)
	leaq	-32(%rbp), %rax
	movq	%rax, %rdi
	call	_ZNSt6chrono13duration_castINS_8durationIlSt5ratioILl1ELl1000000000EEEElS2_ILl1ELl1EEEENSt9enable_ifIXsrNS_13__is_durationIT_EE5valueES8_E4typeERKNS1_IT0_T1_EE
	movq	%rax, -40(%rbp)
	leaq	-48(%rbp), %rax
	movq	%rax, %rdi
	call	_ZNKSt6chrono8durationIlSt5ratioILl1ELl1EEE5countEv
	movq	%rax, -32(%rbp)
	leaq	-40(%rbp), %rax
	movq	%rax, %rdi
	call	_ZNKSt6chrono8durationIlSt5ratioILl1ELl1000000000EEE5countEv
	movq	%rax, -24(%rbp)
.L217:
	leaq	-32(%rbp), %rdx
	leaq	-32(%rbp), %rax
	movq	%rdx, %rsi
	movq	%rax, %rdi
	call	nanosleep@PLT
	cmpl	$-1, %eax
	jne	.L214
	call	__errno_location@PLT
	movl	(%rax), %eax
	cmpl	$4, %eax
	jne	.L214
	movl	$1, %eax
	jmp	.L215
.L214:
	movl	$0, %eax
.L215:
	testb	%al, %al
	je	.L211
	jmp	.L217
.L219:
	nop
.L211:
	movq	-8(%rbp), %rax
	xorq	%fs:40, %rax
	je	.L218
	call	__stack_chk_fail@PLT
.L218:
	leave
	.cfi_def_cfa 7, 8
	ret
	.cfi_endproc
.LFE14143:
	.size	_ZNSt11this_thread9sleep_forIlSt5ratioILl1ELl1EEEEvRKNSt6chrono8durationIT_T0_EE, .-_ZNSt11this_thread9sleep_forIlSt5ratioILl1ELl1EEEEvRKNSt6chrono8durationIT_T0_EE
	.section	.text._ZSt4moveIRNSt7__cxx1112basic_stringIcSt11char_traitsIcESaIcEEEEONSt16remove_referenceIT_E4typeEOS8_,"axG",@progbits,_ZSt4moveIRNSt7__cxx1112basic_stringIcSt11char_traitsIcESaIcEEEEONSt16remove_referenceIT_E4typeEOS8_,comdat
	.weak	_ZSt4moveIRNSt7__cxx1112basic_stringIcSt11char_traitsIcESaIcEEEEONSt16remove_referenceIT_E4typeEOS8_
	.type	_ZSt4moveIRNSt7__cxx1112basic_stringIcSt11char_traitsIcESaIcEEEEONSt16remove_referenceIT_E4typeEOS8_, @function
_ZSt4moveIRNSt7__cxx1112basic_stringIcSt11char_traitsIcESaIcEEEEONSt16remove_referenceIT_E4typeEOS8_:
.LFB14263:
	.cfi_startproc
	endbr64
	pushq	%rbp
	.cfi_def_cfa_offset 16
	.cfi_offset 6, -16
	movq	%rsp, %rbp
	.cfi_def_cfa_register 6
	movq	%rdi, -8(%rbp)
	movq	-8(%rbp), %rax
	popq	%rbp
	.cfi_def_cfa 7, 8
	ret
	.cfi_endproc
.LFE14263:
	.size	_ZSt4moveIRNSt7__cxx1112basic_stringIcSt11char_traitsIcESaIcEEEEONSt16remove_referenceIT_E4typeEOS8_, .-_ZSt4moveIRNSt7__cxx1112basic_stringIcSt11char_traitsIcESaIcEEEEONSt16remove_referenceIT_E4typeEOS8_
	.section	.text._ZN5boost16exception_detail12refcount_ptrINS0_20error_info_containerEE7releaseEv,"axG",@progbits,_ZN5boost16exception_detail12refcount_ptrINS0_20error_info_containerEE7releaseEv,comdat
	.align 2
	.weak	_ZN5boost16exception_detail12refcount_ptrINS0_20error_info_containerEE7releaseEv
	.type	_ZN5boost16exception_detail12refcount_ptrINS0_20error_info_containerEE7releaseEv, @function
_ZN5boost16exception_detail12refcount_ptrINS0_20error_info_containerEE7releaseEv:
.LFB14266:
	.cfi_startproc
	endbr64
	pushq	%rbp
	.cfi_def_cfa_offset 16
	.cfi_offset 6, -16
	movq	%rsp, %rbp
	.cfi_def_cfa_register 6
	subq	$16, %rsp
	movq	%rdi, -8(%rbp)
	movq	-8(%rbp), %rax
	movq	(%rax), %rax
	testq	%rax, %rax
	je	.L223
	movq	-8(%rbp), %rax
	movq	(%rax), %rax
	movq	-8(%rbp), %rdx
	movq	(%rdx), %rdx
	movq	(%rdx), %rdx
	addq	$32, %rdx
	movq	(%rdx), %rdx
	movq	%rax, %rdi
	call	*%rdx
	testb	%al, %al
	je	.L223
	movl	$1, %eax
	jmp	.L224
.L223:
	movl	$0, %eax
.L224:
	testb	%al, %al
	je	.L226
	movq	-8(%rbp), %rax
	movq	$0, (%rax)
.L226:
	nop
	leave
	.cfi_def_cfa 7, 8
	ret
	.cfi_endproc
.LFE14266:
	.size	_ZN5boost16exception_detail12refcount_ptrINS0_20error_info_containerEE7releaseEv, .-_ZN5boost16exception_detail12refcount_ptrINS0_20error_info_containerEE7releaseEv
	.section	.text._ZN5boost16exception_detail12refcount_ptrINS0_20error_info_containerEE5adoptEPS2_,"axG",@progbits,_ZN5boost16exception_detail12refcount_ptrINS0_20error_info_containerEE5adoptEPS2_,comdat
	.align 2
	.weak	_ZN5boost16exception_detail12refcount_ptrINS0_20error_info_containerEE5adoptEPS2_
	.type	_ZN5boost16exception_detail12refcount_ptrINS0_20error_info_containerEE5adoptEPS2_, @function
_ZN5boost16exception_detail12refcount_ptrINS0_20error_info_containerEE5adoptEPS2_:
.LFB14267:
	.cfi_startproc
	endbr64
	pushq	%rbp
	.cfi_def_cfa_offset 16
	.cfi_offset 6, -16
	movq	%rsp, %rbp
	.cfi_def_cfa_register 6
	subq	$16, %rsp
	movq	%rdi, -8(%rbp)
	movq	%rsi, -16(%rbp)
	movq	-8(%rbp), %rax
	movq	%rax, %rdi
	call	_ZN5boost16exception_detail12refcount_ptrINS0_20error_info_containerEE7releaseEv
	movq	-8(%rbp), %rax
	movq	-16(%rbp), %rdx
	movq	%rdx, (%rax)
	movq	-8(%rbp), %rax
	movq	%rax, %rdi
	call	_ZN5boost16exception_detail12refcount_ptrINS0_20error_info_containerEE7add_refEv
	nop
	leave
	.cfi_def_cfa 7, 8
	ret
	.cfi_endproc
.LFE14267:
	.size	_ZN5boost16exception_detail12refcount_ptrINS0_20error_info_containerEE5adoptEPS2_, .-_ZN5boost16exception_detail12refcount_ptrINS0_20error_info_containerEE5adoptEPS2_
	.section	.text._ZN5boost9exceptionC2ERKS0_,"axG",@progbits,_ZN5boost9exceptionC5ERKS0_,comdat
	.align 2
	.weak	_ZN5boost9exceptionC2ERKS0_
	.type	_ZN5boost9exceptionC2ERKS0_, @function
_ZN5boost9exceptionC2ERKS0_:
.LFB14301:
	.cfi_startproc
	endbr64
	pushq	%rbp
	.cfi_def_cfa_offset 16
	.cfi_offset 6, -16
	movq	%rsp, %rbp
	.cfi_def_cfa_register 6
	subq	$16, %rsp
	movq	%rdi, -8(%rbp)
	movq	%rsi, -16(%rbp)
	leaq	16+_ZTVN5boost9exceptionE(%rip), %rdx
	movq	-8(%rbp), %rax
	movq	%rdx, (%rax)
	movq	-8(%rbp), %rax
	addq	$8, %rax
	movq	-16(%rbp), %rdx
	addq	$8, %rdx
	movq	%rdx, %rsi
	movq	%rax, %rdi
	call	_ZN5boost16exception_detail12refcount_ptrINS0_20error_info_containerEEC1ERKS3_
	movq	-16(%rbp), %rax
	movq	16(%rax), %rdx
	movq	-8(%rbp), %rax
	movq	%rdx, 16(%rax)
	movq	-16(%rbp), %rax
	movq	24(%rax), %rdx
	movq	-8(%rbp), %rax
	movq	%rdx, 24(%rax)
	movq	-16(%rbp), %rax
	movl	32(%rax), %edx
	movq	-8(%rbp), %rax
	movl	%edx, 32(%rax)
	nop
	leave
	.cfi_def_cfa 7, 8
	ret
	.cfi_endproc
.LFE14301:
	.size	_ZN5boost9exceptionC2ERKS0_, .-_ZN5boost9exceptionC2ERKS0_
	.weak	_ZN5boost9exceptionC1ERKS0_
	.set	_ZN5boost9exceptionC1ERKS0_,_ZN5boost9exceptionC2ERKS0_
	.section	.text._ZN5boost16exception_detail10clone_baseC2ERKS1_,"axG",@progbits,_ZN5boost16exception_detail10clone_baseC5ERKS1_,comdat
	.align 2
	.weak	_ZN5boost16exception_detail10clone_baseC2ERKS1_
	.type	_ZN5boost16exception_detail10clone_baseC2ERKS1_, @function
_ZN5boost16exception_detail10clone_baseC2ERKS1_:
.LFB14315:
	.cfi_startproc
	endbr64
	pushq	%rbp
	.cfi_def_cfa_offset 16
	.cfi_offset 6, -16
	movq	%rsp, %rbp
	.cfi_def_cfa_register 6
	movq	%rdi, -8(%rbp)
	movq	%rsi, -16(%rbp)
	leaq	16+_ZTVN5boost16exception_detail10clone_baseE(%rip), %rdx
	movq	-8(%rbp), %rax
	movq	%rdx, (%rax)
	nop
	popq	%rbp
	.cfi_def_cfa 7, 8
	ret
	.cfi_endproc
.LFE14315:
	.size	_ZN5boost16exception_detail10clone_baseC2ERKS1_, .-_ZN5boost16exception_detail10clone_baseC2ERKS1_
	.weak	_ZN5boost16exception_detail10clone_baseC1ERKS1_
	.set	_ZN5boost16exception_detail10clone_baseC1ERKS1_,_ZN5boost16exception_detail10clone_baseC2ERKS1_
	.section	.text._ZNSt11range_errorC2ERKS_,"axG",@progbits,_ZNSt11range_errorC5ERKS_,comdat
	.align 2
	.weak	_ZNSt11range_errorC2ERKS_
	.type	_ZNSt11range_errorC2ERKS_, @function
_ZNSt11range_errorC2ERKS_:
.LFB14325:
	.cfi_startproc
	endbr64
	pushq	%rbp
	.cfi_def_cfa_offset 16
	.cfi_offset 6, -16
	movq	%rsp, %rbp
	.cfi_def_cfa_register 6
	subq	$16, %rsp
	movq	%rdi, -8(%rbp)
	movq	%rsi, -16(%rbp)
	movq	-8(%rbp), %rax
	movq	-16(%rbp), %rdx
	movq	%rdx, %rsi
	movq	%rax, %rdi
	call	_ZNSt13runtime_errorC2ERKS_@PLT
	leaq	16+_ZTVSt11range_error(%rip), %rdx
	movq	-8(%rbp), %rax
	movq	%rdx, (%rax)
	nop
	leave
	.cfi_def_cfa 7, 8
	ret
	.cfi_endproc
.LFE14325:
	.size	_ZNSt11range_errorC2ERKS_, .-_ZNSt11range_errorC2ERKS_
	.weak	_ZNSt11range_errorC1ERKS_
	.set	_ZNSt11range_errorC1ERKS_,_ZNSt11range_errorC2ERKS_
	.section	.text._ZN5boost16exception_detail19error_info_injectorISt11range_errorEC2ERKS3_,"axG",@progbits,_ZN5boost16exception_detail19error_info_injectorISt11range_errorEC5ERKS3_,comdat
	.align 2
	.weak	_ZN5boost16exception_detail19error_info_injectorISt11range_errorEC2ERKS3_
	.type	_ZN5boost16exception_detail19error_info_injectorISt11range_errorEC2ERKS3_, @function
_ZN5boost16exception_detail19error_info_injectorISt11range_errorEC2ERKS3_:
.LFB14327:
	.cfi_startproc
	.cfi_personality 0x9b,DW.ref.__gxx_personality_v0
	.cfi_lsda 0x1b,.LLSDA14327
	endbr64
	pushq	%rbp
	.cfi_def_cfa_offset 16
	.cfi_offset 6, -16
	movq	%rsp, %rbp
	.cfi_def_cfa_register 6
	pushq	%rbx
	subq	$24, %rsp
	.cfi_offset 3, -24
	movq	%rdi, -24(%rbp)
	movq	%rsi, -32(%rbp)
	movq	-24(%rbp), %rax
	movq	-32(%rbp), %rdx
	movq	%rdx, %rsi
	movq	%rax, %rdi
	call	_ZNSt11range_errorC2ERKS_
	movq	-24(%rbp), %rax
	addq	$16, %rax
	movq	-32(%rbp), %rdx
	addq	$16, %rdx
	movq	%rdx, %rsi
	movq	%rax, %rdi
.LEHB30:
	call	_ZN5boost9exceptionC2ERKS0_
.LEHE30:
	leaq	16+_ZTVN5boost16exception_detail19error_info_injectorISt11range_errorEE(%rip), %rdx
	movq	-24(%rbp), %rax
	movq	%rdx, (%rax)
	leaq	56+_ZTVN5boost16exception_detail19error_info_injectorISt11range_errorEE(%rip), %rdx
	movq	-24(%rbp), %rax
	movq	%rdx, 16(%rax)
	jmp	.L234
.L233:
	endbr64
	movq	%rax, %rbx
	movq	-24(%rbp), %rax
	movq	%rax, %rdi
	call	_ZNSt11range_errorD2Ev@PLT
	movq	%rbx, %rax
	movq	%rax, %rdi
.LEHB31:
	call	_Unwind_Resume@PLT
.LEHE31:
.L234:
	addq	$24, %rsp
	popq	%rbx
	popq	%rbp
	.cfi_def_cfa 7, 8
	ret
	.cfi_endproc
.LFE14327:
	.section	.gcc_except_table
.LLSDA14327:
	.byte	0xff
	.byte	0xff
	.byte	0x1
	.uleb128 .LLSDACSE14327-.LLSDACSB14327
.LLSDACSB14327:
	.uleb128 .LEHB30-.LFB14327
	.uleb128 .LEHE30-.LEHB30
	.uleb128 .L233-.LFB14327
	.uleb128 0
	.uleb128 .LEHB31-.LFB14327
	.uleb128 .LEHE31-.LEHB31
	.uleb128 0
	.uleb128 0
.LLSDACSE14327:
	.section	.text._ZN5boost16exception_detail19error_info_injectorISt11range_errorEC2ERKS3_,"axG",@progbits,_ZN5boost16exception_detail19error_info_injectorISt11range_errorEC5ERKS3_,comdat
	.size	_ZN5boost16exception_detail19error_info_injectorISt11range_errorEC2ERKS3_, .-_ZN5boost16exception_detail19error_info_injectorISt11range_errorEC2ERKS3_
	.weak	_ZN5boost16exception_detail19error_info_injectorISt11range_errorEC1ERKS3_
	.set	_ZN5boost16exception_detail19error_info_injectorISt11range_errorEC1ERKS3_,_ZN5boost16exception_detail19error_info_injectorISt11range_errorEC2ERKS3_
	.section	.text._ZN5boost17enable_error_infoISt11range_errorEENS_16exception_detail29enable_error_info_return_typeIT_E4typeERKS4_,"axG",@progbits,_ZN5boost17enable_error_infoISt11range_errorEENS_16exception_detail29enable_error_info_return_typeIT_E4typeERKS4_,comdat
	.weak	_ZN5boost17enable_error_infoISt11range_errorEENS_16exception_detail29enable_error_info_return_typeIT_E4typeERKS4_
	.type	_ZN5boost17enable_error_infoISt11range_errorEENS_16exception_detail29enable_error_info_return_typeIT_E4typeERKS4_, @function
_ZN5boost17enable_error_infoISt11range_errorEENS_16exception_detail29enable_error_info_return_typeIT_E4typeERKS4_:
.LFB14322:
	.cfi_startproc
	endbr64
	pushq	%rbp
	.cfi_def_cfa_offset 16
	.cfi_offset 6, -16
	movq	%rsp, %rbp
	.cfi_def_cfa_register 6
	subq	$16, %rsp
	movq	%rdi, -8(%rbp)
	movq	%rsi, -16(%rbp)
	movq	-16(%rbp), %rdx
	movq	-8(%rbp), %rax
	movq	%rdx, %rsi
	movq	%rax, %rdi
	call	_ZN5boost16exception_detail19error_info_injectorISt11range_errorEC1ERKS2_
	movq	-8(%rbp), %rax
	leave
	.cfi_def_cfa 7, 8
	ret
	.cfi_endproc
.LFE14322:
	.size	_ZN5boost17enable_error_infoISt11range_errorEENS_16exception_detail29enable_error_info_return_typeIT_E4typeERKS4_, .-_ZN5boost17enable_error_infoISt11range_errorEENS_16exception_detail29enable_error_info_return_typeIT_E4typeERKS4_
	.section	.text._ZN5boost16exception_detail19error_info_injectorISt11range_errorED2Ev,"axG",@progbits,_ZN5boost16exception_detail19error_info_injectorISt11range_errorED5Ev,comdat
	.align 2
	.weak	_ZN5boost16exception_detail19error_info_injectorISt11range_errorED2Ev
	.type	_ZN5boost16exception_detail19error_info_injectorISt11range_errorED2Ev, @function
_ZN5boost16exception_detail19error_info_injectorISt11range_errorED2Ev:
.LFB14330:
	.cfi_startproc
	endbr64
	pushq	%rbp
	.cfi_def_cfa_offset 16
	.cfi_offset 6, -16
	movq	%rsp, %rbp
	.cfi_def_cfa_register 6
	subq	$16, %rsp
	movq	%rdi, -8(%rbp)
	leaq	16+_ZTVN5boost16exception_detail19error_info_injectorISt11range_errorEE(%rip), %rdx
	movq	-8(%rbp), %rax
	movq	%rdx, (%rax)
	leaq	56+_ZTVN5boost16exception_detail19error_info_injectorISt11range_errorEE(%rip), %rdx
	movq	-8(%rbp), %rax
	movq	%rdx, 16(%rax)
	movq	-8(%rbp), %rax
	addq	$16, %rax
	movq	%rax, %rdi
	call	_ZN5boost9exceptionD2Ev
	movq	-8(%rbp), %rax
	movq	%rax, %rdi
	call	_ZNSt11range_errorD2Ev@PLT
	nop
	leave
	.cfi_def_cfa 7, 8
	ret
	.cfi_endproc
.LFE14330:
	.size	_ZN5boost16exception_detail19error_info_injectorISt11range_errorED2Ev, .-_ZN5boost16exception_detail19error_info_injectorISt11range_errorED2Ev
	.weak	_ZN5boost16exception_detail19error_info_injectorISt11range_errorED1Ev
	.set	_ZN5boost16exception_detail19error_info_injectorISt11range_errorED1Ev,_ZN5boost16exception_detail19error_info_injectorISt11range_errorED2Ev
	.set	.LTHUNK2,_ZN5boost16exception_detail19error_info_injectorISt11range_errorED1Ev
	.weak	_ZThn16_N5boost16exception_detail19error_info_injectorISt11range_errorED1Ev
	.type	_ZThn16_N5boost16exception_detail19error_info_injectorISt11range_errorED1Ev, @function
_ZThn16_N5boost16exception_detail19error_info_injectorISt11range_errorED1Ev:
.LFB16515:
	.cfi_startproc
	endbr64
	subq	$16, %rdi
	jmp	.LTHUNK2
	.cfi_endproc
.LFE16515:
	.size	_ZThn16_N5boost16exception_detail19error_info_injectorISt11range_errorED1Ev, .-_ZThn16_N5boost16exception_detail19error_info_injectorISt11range_errorED1Ev
	.section	.text._ZN5boost16exception_detail19error_info_injectorISt11range_errorED0Ev,"axG",@progbits,_ZN5boost16exception_detail19error_info_injectorISt11range_errorED5Ev,comdat
	.align 2
	.weak	_ZN5boost16exception_detail19error_info_injectorISt11range_errorED0Ev
	.type	_ZN5boost16exception_detail19error_info_injectorISt11range_errorED0Ev, @function
_ZN5boost16exception_detail19error_info_injectorISt11range_errorED0Ev:
.LFB14332:
	.cfi_startproc
	endbr64
	pushq	%rbp
	.cfi_def_cfa_offset 16
	.cfi_offset 6, -16
	movq	%rsp, %rbp
	.cfi_def_cfa_register 6
	subq	$16, %rsp
	movq	%rdi, -8(%rbp)
	movq	-8(%rbp), %rax
	movq	%rax, %rdi
	call	_ZN5boost16exception_detail19error_info_injectorISt11range_errorED1Ev
	movq	-8(%rbp), %rax
	movl	$56, %esi
	movq	%rax, %rdi
	call	_ZdlPvm@PLT
	leave
	.cfi_def_cfa 7, 8
	ret
	.cfi_endproc
.LFE14332:
	.size	_ZN5boost16exception_detail19error_info_injectorISt11range_errorED0Ev, .-_ZN5boost16exception_detail19error_info_injectorISt11range_errorED0Ev
	.set	.LTHUNK3,_ZN5boost16exception_detail19error_info_injectorISt11range_errorED0Ev
	.weak	_ZThn16_N5boost16exception_detail19error_info_injectorISt11range_errorED0Ev
	.type	_ZThn16_N5boost16exception_detail19error_info_injectorISt11range_errorED0Ev, @function
_ZThn16_N5boost16exception_detail19error_info_injectorISt11range_errorED0Ev:
.LFB16516:
	.cfi_startproc
	endbr64
	subq	$16, %rdi
	jmp	.LTHUNK3
	.cfi_endproc
.LFE16516:
	.size	_ZThn16_N5boost16exception_detail19error_info_injectorISt11range_errorED0Ev, .-_ZThn16_N5boost16exception_detail19error_info_injectorISt11range_errorED0Ev
	.section	.text._ZN5boost16exception_detail8set_infoINS0_19error_info_injectorISt11range_errorEEEERKT_S7_RKNS_10error_infoINS_15throw_function_EPKcEE,"axG",@progbits,_ZN5boost16exception_detail8set_infoINS0_19error_info_injectorISt11range_errorEEEERKT_S7_RKNS_10error_infoINS_15throw_function_EPKcEE,comdat
	.weak	_ZN5boost16exception_detail8set_infoINS0_19error_info_injectorISt11range_errorEEEERKT_S7_RKNS_10error_infoINS_15throw_function_EPKcEE
	.type	_ZN5boost16exception_detail8set_infoINS0_19error_info_injectorISt11range_errorEEEERKT_S7_RKNS_10error_infoINS_15throw_function_EPKcEE, @function
_ZN5boost16exception_detail8set_infoINS0_19error_info_injectorISt11range_errorEEEERKT_S7_RKNS_10error_infoINS_15throw_function_EPKcEE:
.LFB14333:
	.cfi_startproc
	endbr64
	pushq	%rbp
	.cfi_def_cfa_offset 16
	.cfi_offset 6, -16
	movq	%rsp, %rbp
	.cfi_def_cfa_register 6
	movq	%rdi, -8(%rbp)
	movq	%rsi, -16(%rbp)
	movq	-16(%rbp), %rax
	movq	(%rax), %rdx
	movq	-8(%rbp), %rax
	movq	%rdx, 32(%rax)
	movq	-8(%rbp), %rax
	popq	%rbp
	.cfi_def_cfa 7, 8
	ret
	.cfi_endproc
.LFE14333:
	.size	_ZN5boost16exception_detail8set_infoINS0_19error_info_injectorISt11range_errorEEEERKT_S7_RKNS_10error_infoINS_15throw_function_EPKcEE, .-_ZN5boost16exception_detail8set_infoINS0_19error_info_injectorISt11range_errorEEEERKT_S7_RKNS_10error_infoINS_15throw_function_EPKcEE
	.section	.text._ZN5boost16exception_detail8set_infoINS0_19error_info_injectorISt11range_errorEEEERKT_S7_RKNS_10error_infoINS_11throw_file_EPKcEE,"axG",@progbits,_ZN5boost16exception_detail8set_infoINS0_19error_info_injectorISt11range_errorEEEERKT_S7_RKNS_10error_infoINS_11throw_file_EPKcEE,comdat
	.weak	_ZN5boost16exception_detail8set_infoINS0_19error_info_injectorISt11range_errorEEEERKT_S7_RKNS_10error_infoINS_11throw_file_EPKcEE
	.type	_ZN5boost16exception_detail8set_infoINS0_19error_info_injectorISt11range_errorEEEERKT_S7_RKNS_10error_infoINS_11throw_file_EPKcEE, @function
_ZN5boost16exception_detail8set_infoINS0_19error_info_injectorISt11range_errorEEEERKT_S7_RKNS_10error_infoINS_11throw_file_EPKcEE:
.LFB14334:
	.cfi_startproc
	endbr64
	pushq	%rbp
	.cfi_def_cfa_offset 16
	.cfi_offset 6, -16
	movq	%rsp, %rbp
	.cfi_def_cfa_register 6
	movq	%rdi, -8(%rbp)
	movq	%rsi, -16(%rbp)
	movq	-16(%rbp), %rax
	movq	(%rax), %rdx
	movq	-8(%rbp), %rax
	movq	%rdx, 40(%rax)
	movq	-8(%rbp), %rax
	popq	%rbp
	.cfi_def_cfa 7, 8
	ret
	.cfi_endproc
.LFE14334:
	.size	_ZN5boost16exception_detail8set_infoINS0_19error_info_injectorISt11range_errorEEEERKT_S7_RKNS_10error_infoINS_11throw_file_EPKcEE, .-_ZN5boost16exception_detail8set_infoINS0_19error_info_injectorISt11range_errorEEEERKT_S7_RKNS_10error_infoINS_11throw_file_EPKcEE
	.section	.text._ZN5boost16exception_detail8set_infoINS0_19error_info_injectorISt11range_errorEEEERKT_S7_RKNS_10error_infoINS_11throw_line_EiEE,"axG",@progbits,_ZN5boost16exception_detail8set_infoINS0_19error_info_injectorISt11range_errorEEEERKT_S7_RKNS_10error_infoINS_11throw_line_EiEE,comdat
	.weak	_ZN5boost16exception_detail8set_infoINS0_19error_info_injectorISt11range_errorEEEERKT_S7_RKNS_10error_infoINS_11throw_line_EiEE
	.type	_ZN5boost16exception_detail8set_infoINS0_19error_info_injectorISt11range_errorEEEERKT_S7_RKNS_10error_infoINS_11throw_line_EiEE, @function
_ZN5boost16exception_detail8set_infoINS0_19error_info_injectorISt11range_errorEEEERKT_S7_RKNS_10error_infoINS_11throw_line_EiEE:
.LFB14335:
	.cfi_startproc
	endbr64
	pushq	%rbp
	.cfi_def_cfa_offset 16
	.cfi_offset 6, -16
	movq	%rsp, %rbp
	.cfi_def_cfa_register 6
	movq	%rdi, -8(%rbp)
	movq	%rsi, -16(%rbp)
	movq	-16(%rbp), %rax
	movl	(%rax), %edx
	movq	-8(%rbp), %rax
	movl	%edx, 48(%rax)
	movq	-8(%rbp), %rax
	popq	%rbp
	.cfi_def_cfa 7, 8
	ret
	.cfi_endproc
.LFE14335:
	.size	_ZN5boost16exception_detail8set_infoINS0_19error_info_injectorISt11range_errorEEEERKT_S7_RKNS_10error_infoINS_11throw_line_EiEE, .-_ZN5boost16exception_detail8set_infoINS0_19error_info_injectorISt11range_errorEEEERKT_S7_RKNS_10error_infoINS_11throw_line_EiEE
	.section	.text._ZN5boost16exception_detail10clone_implINS0_19error_info_injectorISt11range_errorEEEC1ERKS5_,"axG",@progbits,_ZN5boost16exception_detail10clone_implINS0_19error_info_injectorISt11range_errorEEEC1ERKS5_,comdat
	.align 2
	.weak	_ZN5boost16exception_detail10clone_implINS0_19error_info_injectorISt11range_errorEEEC1ERKS5_
	.type	_ZN5boost16exception_detail10clone_implINS0_19error_info_injectorISt11range_errorEEEC1ERKS5_, @function
_ZN5boost16exception_detail10clone_implINS0_19error_info_injectorISt11range_errorEEEC1ERKS5_:
.LFB14340:
	.cfi_startproc
	.cfi_personality 0x9b,DW.ref.__gxx_personality_v0
	.cfi_lsda 0x1b,.LLSDA14340
	endbr64
	pushq	%rbp
	.cfi_def_cfa_offset 16
	.cfi_offset 6, -16
	movq	%rsp, %rbp
	.cfi_def_cfa_register 6
	pushq	%rbx
	subq	$24, %rsp
	.cfi_offset 3, -24
	movq	%rdi, -24(%rbp)
	movq	%rsi, -32(%rbp)
	movq	-24(%rbp), %rax
	addq	$56, %rax
	movq	-32(%rbp), %rdx
	movq	(%rdx), %rdx
	subq	$24, %rdx
	movq	(%rdx), %rdx
	movq	%rdx, %rcx
	movq	-32(%rbp), %rdx
	addq	%rcx, %rdx
	movq	%rdx, %rsi
	movq	%rax, %rdi
	call	_ZN5boost16exception_detail10clone_baseC2ERKS1_
	movq	-24(%rbp), %rax
	movq	-32(%rbp), %rdx
	movq	%rdx, %rsi
	movq	%rax, %rdi
.LEHB32:
	call	_ZN5boost16exception_detail19error_info_injectorISt11range_errorEC2ERKS3_
.LEHE32:
	leaq	24+_ZTVN5boost16exception_detail10clone_implINS0_19error_info_injectorISt11range_errorEEEE(%rip), %rdx
	movq	-24(%rbp), %rax
	movq	%rdx, (%rax)
	leaq	80+_ZTVN5boost16exception_detail10clone_implINS0_19error_info_injectorISt11range_errorEEEE(%rip), %rdx
	movq	-24(%rbp), %rax
	movq	%rdx, 16(%rax)
	movq	-24(%rbp), %rax
	addq	$56, %rax
	leaq	136+_ZTVN5boost16exception_detail10clone_implINS0_19error_info_injectorISt11range_errorEEEE(%rip), %rdx
	movq	%rdx, (%rax)
	jmp	.L248
.L247:
	endbr64
	movq	%rax, %rbx
	movq	-24(%rbp), %rax
	addq	$56, %rax
	movq	%rax, %rdi
	call	_ZN5boost16exception_detail10clone_baseD2Ev
	movq	%rbx, %rax
	movq	%rax, %rdi
.LEHB33:
	call	_Unwind_Resume@PLT
.LEHE33:
.L248:
	addq	$24, %rsp
	popq	%rbx
	popq	%rbp
	.cfi_def_cfa 7, 8
	ret
	.cfi_endproc
.LFE14340:
	.section	.gcc_except_table
.LLSDA14340:
	.byte	0xff
	.byte	0xff
	.byte	0x1
	.uleb128 .LLSDACSE14340-.LLSDACSB14340
.LLSDACSB14340:
	.uleb128 .LEHB32-.LFB14340
	.uleb128 .LEHE32-.LEHB32
	.uleb128 .L247-.LFB14340
	.uleb128 0
	.uleb128 .LEHB33-.LFB14340
	.uleb128 .LEHE33-.LEHB33
	.uleb128 0
	.uleb128 0
.LLSDACSE14340:
	.section	.text._ZN5boost16exception_detail10clone_implINS0_19error_info_injectorISt11range_errorEEEC1ERKS5_,"axG",@progbits,_ZN5boost16exception_detail10clone_implINS0_19error_info_injectorISt11range_errorEEEC1ERKS5_,comdat
	.size	_ZN5boost16exception_detail10clone_implINS0_19error_info_injectorISt11range_errorEEEC1ERKS5_, .-_ZN5boost16exception_detail10clone_implINS0_19error_info_injectorISt11range_errorEEEC1ERKS5_
	.section	.text._ZN5boost15throw_exceptionINS_16exception_detail19error_info_injectorISt11range_errorEEEEvRKT_,"axG",@progbits,_ZN5boost15throw_exceptionINS_16exception_detail19error_info_injectorISt11range_errorEEEEvRKT_,comdat
	.weak	_ZN5boost15throw_exceptionINS_16exception_detail19error_info_injectorISt11range_errorEEEEvRKT_
	.type	_ZN5boost15throw_exceptionINS_16exception_detail19error_info_injectorISt11range_errorEEEEvRKT_, @function
_ZN5boost15throw_exceptionINS_16exception_detail19error_info_injectorISt11range_errorEEEEvRKT_:
.LFB14336:
	.cfi_startproc
	.cfi_personality 0x9b,DW.ref.__gxx_personality_v0
	.cfi_lsda 0x1b,.LLSDA14336
	endbr64
	pushq	%rbp
	.cfi_def_cfa_offset 16
	.cfi_offset 6, -16
	movq	%rsp, %rbp
	.cfi_def_cfa_register 6
	pushq	%r12
	pushq	%rbx
	subq	$32, %rsp
	.cfi_offset 12, -24
	.cfi_offset 3, -32
	movq	%rdi, -40(%rbp)
	movq	%fs:40, %rax
	movq	%rax, -24(%rbp)
	xorl	%eax, %eax
	movq	-40(%rbp), %rax
	movq	%rax, %rdi
	call	_ZN5boost36throw_exception_assert_compatibilityERKSt9exception
	movl	$64, %edi
	call	__cxa_allocate_exception@PLT
	movq	%rax, %rbx
	movq	-40(%rbp), %rax
	movq	%rax, %rsi
	movq	%rbx, %rdi
.LEHB34:
	call	_ZN5boost16exception_detail11enable_bothINS0_19error_info_injectorISt11range_errorEEEENS_10wrapexceptINS0_26remove_error_info_injectorIT_E4typeEEERKS7_
.LEHE34:
	leaq	_ZN5boost10wrapexceptISt11range_errorED1Ev(%rip), %rdx
	leaq	_ZTIN5boost10wrapexceptISt11range_errorEE(%rip), %rsi
	movq	%rbx, %rdi
.LEHB35:
	call	__cxa_throw@PLT
.L252:
	endbr64
	movq	%rax, %r12
	movq	%rbx, %rdi
	call	__cxa_free_exception@PLT
	movq	%r12, %rax
	movq	%rax, %rdi
	call	_Unwind_Resume@PLT
.LEHE35:
	.cfi_endproc
.LFE14336:
	.section	.gcc_except_table
.LLSDA14336:
	.byte	0xff
	.byte	0xff
	.byte	0x1
	.uleb128 .LLSDACSE14336-.LLSDACSB14336
.LLSDACSB14336:
	.uleb128 .LEHB34-.LFB14336
	.uleb128 .LEHE34-.LEHB34
	.uleb128 .L252-.LFB14336
	.uleb128 0
	.uleb128 .LEHB35-.LFB14336
	.uleb128 .LEHE35-.LEHB35
	.uleb128 0
	.uleb128 0
.LLSDACSE14336:
	.section	.text._ZN5boost15throw_exceptionINS_16exception_detail19error_info_injectorISt11range_errorEEEEvRKT_,"axG",@progbits,_ZN5boost15throw_exceptionINS_16exception_detail19error_info_injectorISt11range_errorEEEEvRKT_,comdat
	.size	_ZN5boost15throw_exceptionINS_16exception_detail19error_info_injectorISt11range_errorEEEEvRKT_, .-_ZN5boost15throw_exceptionINS_16exception_detail19error_info_injectorISt11range_errorEEEEvRKT_
	.section	.text._ZNSaIyED2Ev,"axG",@progbits,_ZNSaIyED5Ev,comdat
	.align 2
	.weak	_ZNSaIyED2Ev
	.type	_ZNSaIyED2Ev, @function
_ZNSaIyED2Ev:
.LFB14350:
	.cfi_startproc
	endbr64
	pushq	%rbp
	.cfi_def_cfa_offset 16
	.cfi_offset 6, -16
	movq	%rsp, %rbp
	.cfi_def_cfa_register 6
	subq	$16, %rsp
	movq	%rdi, -8(%rbp)
	movq	-8(%rbp), %rax
	movq	%rax, %rdi
	call	_ZN9__gnu_cxx13new_allocatorIyED2Ev
	nop
	leave
	.cfi_def_cfa 7, 8
	ret
	.cfi_endproc
.LFE14350:
	.size	_ZNSaIyED2Ev, .-_ZNSaIyED2Ev
	.weak	_ZNSaIyED1Ev
	.set	_ZNSaIyED1Ev,_ZNSaIyED2Ev
	.section	.text._ZN5boost14multiprecision8backends12cpp_int_baseILj0ELj4294967295ELNS0_16cpp_integer_typeE1ELNS0_18cpp_int_check_typeE0ESaIyELb0EE9data_typeC2Ev,"axG",@progbits,_ZN5boost14multiprecision8backends12cpp_int_baseILj0ELj4294967295ELNS0_16cpp_integer_typeE1ELNS0_18cpp_int_check_typeE0ESaIyELb0EE9data_typeC5Ev,comdat
	.align 2
	.weak	_ZN5boost14multiprecision8backends12cpp_int_baseILj0ELj4294967295ELNS0_16cpp_integer_typeE1ELNS0_18cpp_int_check_typeE0ESaIyELb0EE9data_typeC2Ev
	.type	_ZN5boost14multiprecision8backends12cpp_int_baseILj0ELj4294967295ELNS0_16cpp_integer_typeE1ELNS0_18cpp_int_check_typeE0ESaIyELb0EE9data_typeC2Ev, @function
_ZN5boost14multiprecision8backends12cpp_int_baseILj0ELj4294967295ELNS0_16cpp_integer_typeE1ELNS0_18cpp_int_check_typeE0ESaIyELb0EE9data_typeC2Ev:
.LFB14353:
	.cfi_startproc
	endbr64
	pushq	%rbp
	.cfi_def_cfa_offset 16
	.cfi_offset 6, -16
	movq	%rsp, %rbp
	.cfi_def_cfa_register 6
	movq	%rdi, -8(%rbp)
	movq	-8(%rbp), %rax
	movq	$0, (%rax)
	nop
	popq	%rbp
	.cfi_def_cfa 7, 8
	ret
	.cfi_endproc
.LFE14353:
	.size	_ZN5boost14multiprecision8backends12cpp_int_baseILj0ELj4294967295ELNS0_16cpp_integer_typeE1ELNS0_18cpp_int_check_typeE0ESaIyELb0EE9data_typeC2Ev, .-_ZN5boost14multiprecision8backends12cpp_int_baseILj0ELj4294967295ELNS0_16cpp_integer_typeE1ELNS0_18cpp_int_check_typeE0ESaIyELb0EE9data_typeC2Ev
	.weak	_ZN5boost14multiprecision8backends12cpp_int_baseILj0ELj4294967295ELNS0_16cpp_integer_typeE1ELNS0_18cpp_int_check_typeE0ESaIyELb0EE9data_typeC1Ev
	.set	_ZN5boost14multiprecision8backends12cpp_int_baseILj0ELj4294967295ELNS0_16cpp_integer_typeE1ELNS0_18cpp_int_check_typeE0ESaIyELb0EE9data_typeC1Ev,_ZN5boost14multiprecision8backends12cpp_int_baseILj0ELj4294967295ELNS0_16cpp_integer_typeE1ELNS0_18cpp_int_check_typeE0ESaIyELb0EE9data_typeC2Ev
	.section	.text._ZN5boost14multiprecision8backends12cpp_int_baseILj0ELj4294967295ELNS0_16cpp_integer_typeE1ELNS0_18cpp_int_check_typeE0ESaIyELb0EE5limbsEv,"axG",@progbits,_ZN5boost14multiprecision8backends12cpp_int_baseILj0ELj4294967295ELNS0_16cpp_integer_typeE1ELNS0_18cpp_int_check_typeE0ESaIyELb0EE5limbsEv,comdat
	.align 2
	.weak	_ZN5boost14multiprecision8backends12cpp_int_baseILj0ELj4294967295ELNS0_16cpp_integer_typeE1ELNS0_18cpp_int_check_typeE0ESaIyELb0EE5limbsEv
	.type	_ZN5boost14multiprecision8backends12cpp_int_baseILj0ELj4294967295ELNS0_16cpp_integer_typeE1ELNS0_18cpp_int_check_typeE0ESaIyELb0EE5limbsEv, @function
_ZN5boost14multiprecision8backends12cpp_int_baseILj0ELj4294967295ELNS0_16cpp_integer_typeE1ELNS0_18cpp_int_check_typeE0ESaIyELb0EE5limbsEv:
.LFB14355:
	.cfi_startproc
	endbr64
	pushq	%rbp
	.cfi_def_cfa_offset 16
	.cfi_offset 6, -16
	movq	%rsp, %rbp
	.cfi_def_cfa_register 6
	movq	%rdi, -8(%rbp)
	movq	-8(%rbp), %rax
	movzbl	21(%rax), %eax
	testb	%al, %al
	je	.L256
	movq	-8(%rbp), %rax
	jmp	.L258
.L256:
	movq	-8(%rbp), %rax
	movq	8(%rax), %rax
.L258:
	popq	%rbp
	.cfi_def_cfa 7, 8
	ret
	.cfi_endproc
.LFE14355:
	.size	_ZN5boost14multiprecision8backends12cpp_int_baseILj0ELj4294967295ELNS0_16cpp_integer_typeE1ELNS0_18cpp_int_check_typeE0ESaIyELb0EE5limbsEv, .-_ZN5boost14multiprecision8backends12cpp_int_baseILj0ELj4294967295ELNS0_16cpp_integer_typeE1ELNS0_18cpp_int_check_typeE0ESaIyELb0EE5limbsEv
	.section	.text._ZN5boost14multiprecision8backends12cpp_int_baseILj0ELj4294967295ELNS0_16cpp_integer_typeE1ELNS0_18cpp_int_check_typeE0ESaIyELb0EE9allocatorEv,"axG",@progbits,_ZN5boost14multiprecision8backends12cpp_int_baseILj0ELj4294967295ELNS0_16cpp_integer_typeE1ELNS0_18cpp_int_check_typeE0ESaIyELb0EE9allocatorEv,comdat
	.align 2
	.weak	_ZN5boost14multiprecision8backends12cpp_int_baseILj0ELj4294967295ELNS0_16cpp_integer_typeE1ELNS0_18cpp_int_check_typeE0ESaIyELb0EE9allocatorEv
	.type	_ZN5boost14multiprecision8backends12cpp_int_baseILj0ELj4294967295ELNS0_16cpp_integer_typeE1ELNS0_18cpp_int_check_typeE0ESaIyELb0EE9allocatorEv, @function
_ZN5boost14multiprecision8backends12cpp_int_baseILj0ELj4294967295ELNS0_16cpp_integer_typeE1ELNS0_18cpp_int_check_typeE0ESaIyELb0EE9allocatorEv:
.LFB14357:
	.cfi_startproc
	endbr64
	pushq	%rbp
	.cfi_def_cfa_offset 16
	.cfi_offset 6, -16
	movq	%rsp, %rbp
	.cfi_def_cfa_register 6
	subq	$16, %rsp
	movq	%rdi, -8(%rbp)
	movq	-8(%rbp), %rax
	movq	%rax, %rdi
	call	_ZN5boost6empty_11empty_valueISaIyELj0ELb1EE3getEv
	leave
	.cfi_def_cfa 7, 8
	ret
	.cfi_endproc
.LFE14357:
	.size	_ZN5boost14multiprecision8backends12cpp_int_baseILj0ELj4294967295ELNS0_16cpp_integer_typeE1ELNS0_18cpp_int_check_typeE0ESaIyELb0EE9allocatorEv, .-_ZN5boost14multiprecision8backends12cpp_int_baseILj0ELj4294967295ELNS0_16cpp_integer_typeE1ELNS0_18cpp_int_check_typeE0ESaIyELb0EE9allocatorEv
	.section	.text._ZNK5boost14multiprecision8backends12cpp_int_baseILj0ELj4294967295ELNS0_16cpp_integer_typeE1ELNS0_18cpp_int_check_typeE0ESaIyELb0EE8capacityEv,"axG",@progbits,_ZNK5boost14multiprecision8backends12cpp_int_baseILj0ELj4294967295ELNS0_16cpp_integer_typeE1ELNS0_18cpp_int_check_typeE0ESaIyELb0EE8capacityEv,comdat
	.align 2
	.weak	_ZNK5boost14multiprecision8backends12cpp_int_baseILj0ELj4294967295ELNS0_16cpp_integer_typeE1ELNS0_18cpp_int_check_typeE0ESaIyELb0EE8capacityEv
	.type	_ZNK5boost14multiprecision8backends12cpp_int_baseILj0ELj4294967295ELNS0_16cpp_integer_typeE1ELNS0_18cpp_int_check_typeE0ESaIyELb0EE8capacityEv, @function
_ZNK5boost14multiprecision8backends12cpp_int_baseILj0ELj4294967295ELNS0_16cpp_integer_typeE1ELNS0_18cpp_int_check_typeE0ESaIyELb0EE8capacityEv:
.LFB14358:
	.cfi_startproc
	endbr64
	pushq	%rbp
	.cfi_def_cfa_offset 16
	.cfi_offset 6, -16
	movq	%rsp, %rbp
	.cfi_def_cfa_register 6
	movq	%rdi, -8(%rbp)
	movq	-8(%rbp), %rax
	movzbl	21(%rax), %eax
	testb	%al, %al
	je	.L262
	movl	$2, %eax
	jmp	.L264
.L262:
	movq	-8(%rbp), %rax
	movl	(%rax), %eax
.L264:
	popq	%rbp
	.cfi_def_cfa 7, 8
	ret
	.cfi_endproc
.LFE14358:
	.size	_ZNK5boost14multiprecision8backends12cpp_int_baseILj0ELj4294967295ELNS0_16cpp_integer_typeE1ELNS0_18cpp_int_check_typeE0ESaIyELb0EE8capacityEv, .-_ZNK5boost14multiprecision8backends12cpp_int_baseILj0ELj4294967295ELNS0_16cpp_integer_typeE1ELNS0_18cpp_int_check_typeE0ESaIyELb0EE8capacityEv
	.section	.text._ZN9__gnu_cxx13new_allocatorIyE10deallocateEPym,"axG",@progbits,_ZN9__gnu_cxx13new_allocatorIyE10deallocateEPym,comdat
	.align 2
	.weak	_ZN9__gnu_cxx13new_allocatorIyE10deallocateEPym
	.type	_ZN9__gnu_cxx13new_allocatorIyE10deallocateEPym, @function
_ZN9__gnu_cxx13new_allocatorIyE10deallocateEPym:
.LFB14359:
	.cfi_startproc
	endbr64
	pushq	%rbp
	.cfi_def_cfa_offset 16
	.cfi_offset 6, -16
	movq	%rsp, %rbp
	.cfi_def_cfa_register 6
	subq	$32, %rsp
	movq	%rdi, -8(%rbp)
	movq	%rsi, -16(%rbp)
	movq	%rdx, -24(%rbp)
	movq	-16(%rbp), %rax
	movq	%rax, %rdi
	call	_ZdlPv@PLT
	nop
	leave
	.cfi_def_cfa 7, 8
	ret
	.cfi_endproc
.LFE14359:
	.size	_ZN9__gnu_cxx13new_allocatorIyE10deallocateEPym, .-_ZN9__gnu_cxx13new_allocatorIyE10deallocateEPym
	.section	.text._ZNSaIyEC2Ev,"axG",@progbits,_ZNSaIyEC5Ev,comdat
	.align 2
	.weak	_ZNSaIyEC2Ev
	.type	_ZNSaIyEC2Ev, @function
_ZNSaIyEC2Ev:
.LFB14365:
	.cfi_startproc
	endbr64
	pushq	%rbp
	.cfi_def_cfa_offset 16
	.cfi_offset 6, -16
	movq	%rsp, %rbp
	.cfi_def_cfa_register 6
	subq	$16, %rsp
	movq	%rdi, -8(%rbp)
	movq	-8(%rbp), %rax
	movq	%rax, %rdi
	call	_ZN9__gnu_cxx13new_allocatorIyEC2Ev
	nop
	leave
	.cfi_def_cfa 7, 8
	ret
	.cfi_endproc
.LFE14365:
	.size	_ZNSaIyEC2Ev, .-_ZNSaIyEC2Ev
	.weak	_ZNSaIyEC1Ev
	.set	_ZNSaIyEC1Ev,_ZNSaIyEC2Ev
	.section	.text._ZN5boost14multiprecision8backends15cpp_int_backendILj0ELj0ELNS0_16cpp_integer_typeE1ELNS0_18cpp_int_check_typeE0ESaIyEEC2Ev,"axG",@progbits,_ZN5boost14multiprecision8backends15cpp_int_backendILj0ELj0ELNS0_16cpp_integer_typeE1ELNS0_18cpp_int_check_typeE0ESaIyEEC5Ev,comdat
	.align 2
	.weak	_ZN5boost14multiprecision8backends15cpp_int_backendILj0ELj0ELNS0_16cpp_integer_typeE1ELNS0_18cpp_int_check_typeE0ESaIyEEC2Ev
	.type	_ZN5boost14multiprecision8backends15cpp_int_backendILj0ELj0ELNS0_16cpp_integer_typeE1ELNS0_18cpp_int_check_typeE0ESaIyEEC2Ev, @function
_ZN5boost14multiprecision8backends15cpp_int_backendILj0ELj0ELNS0_16cpp_integer_typeE1ELNS0_18cpp_int_check_typeE0ESaIyEEC2Ev:
.LFB14372:
	.cfi_startproc
	endbr64
	pushq	%rbp
	.cfi_def_cfa_offset 16
	.cfi_offset 6, -16
	movq	%rsp, %rbp
	.cfi_def_cfa_register 6
	subq	$16, %rsp
	movq	%rdi, -8(%rbp)
	movq	-8(%rbp), %rax
	movq	%rax, %rdi
	call	_ZN5boost14multiprecision8backends12cpp_int_baseILj0ELj4294967295ELNS0_16cpp_integer_typeE1ELNS0_18cpp_int_check_typeE0ESaIyELb0EEC2Ev
	nop
	leave
	.cfi_def_cfa 7, 8
	ret
	.cfi_endproc
.LFE14372:
	.size	_ZN5boost14multiprecision8backends15cpp_int_backendILj0ELj0ELNS0_16cpp_integer_typeE1ELNS0_18cpp_int_check_typeE0ESaIyEEC2Ev, .-_ZN5boost14multiprecision8backends15cpp_int_backendILj0ELj0ELNS0_16cpp_integer_typeE1ELNS0_18cpp_int_check_typeE0ESaIyEEC2Ev
	.weak	_ZN5boost14multiprecision8backends15cpp_int_backendILj0ELj0ELNS0_16cpp_integer_typeE1ELNS0_18cpp_int_check_typeE0ESaIyEEC1Ev
	.set	_ZN5boost14multiprecision8backends15cpp_int_backendILj0ELj0ELNS0_16cpp_integer_typeE1ELNS0_18cpp_int_check_typeE0ESaIyEEC1Ev,_ZN5boost14multiprecision8backends15cpp_int_backendILj0ELj0ELNS0_16cpp_integer_typeE1ELNS0_18cpp_int_check_typeE0ESaIyEEC2Ev
	.section	.text._ZN5boost14multiprecision8backends13cpp_bin_floatILj100ELNS1_15digit_base_typeE10EviLi0ELi0EEC2Ev,"axG",@progbits,_ZN5boost14multiprecision8backends13cpp_bin_floatILj100ELNS1_15digit_base_typeE10EviLi0ELi0EEC5Ev,comdat
	.align 2
	.weak	_ZN5boost14multiprecision8backends13cpp_bin_floatILj100ELNS1_15digit_base_typeE10EviLi0ELi0EEC2Ev
	.type	_ZN5boost14multiprecision8backends13cpp_bin_floatILj100ELNS1_15digit_base_typeE10EviLi0ELi0EEC2Ev, @function
_ZN5boost14multiprecision8backends13cpp_bin_floatILj100ELNS1_15digit_base_typeE10EviLi0ELi0EEC2Ev:
.LFB14430:
	.cfi_startproc
	endbr64
	pushq	%rbp
	.cfi_def_cfa_offset 16
	.cfi_offset 6, -16
	movq	%rsp, %rbp
	.cfi_def_cfa_register 6
	subq	$16, %rsp
	movq	%rdi, -8(%rbp)
	movq	-8(%rbp), %rax
	movq	%rax, %rdi
	call	_ZN5boost14multiprecision8backends15cpp_int_backendILj334ELj334ELNS0_16cpp_integer_typeE0ELNS0_18cpp_int_check_typeE0EvEC1Ev
	movq	-8(%rbp), %rax
	movl	$2147482980, 64(%rax)
	movq	-8(%rbp), %rax
	movb	$0, 68(%rax)
	nop
	leave
	.cfi_def_cfa 7, 8
	ret
	.cfi_endproc
.LFE14430:
	.size	_ZN5boost14multiprecision8backends13cpp_bin_floatILj100ELNS1_15digit_base_typeE10EviLi0ELi0EEC2Ev, .-_ZN5boost14multiprecision8backends13cpp_bin_floatILj100ELNS1_15digit_base_typeE10EviLi0ELi0EEC2Ev
	.weak	_ZN5boost14multiprecision8backends13cpp_bin_floatILj100ELNS1_15digit_base_typeE10EviLi0ELi0EEC1Ev
	.set	_ZN5boost14multiprecision8backends13cpp_bin_floatILj100ELNS1_15digit_base_typeE10EviLi0ELi0EEC1Ev,_ZN5boost14multiprecision8backends13cpp_bin_floatILj100ELNS1_15digit_base_typeE10EviLi0ELi0EEC2Ev
	.section	.text._ZNR5boost14multiprecision6numberINS0_8backends13cpp_bin_floatILj100ELNS2_15digit_base_typeE10EviLi0ELi0EEELNS0_26expression_template_optionE0EE7backendEv,"axG",@progbits,_ZNR5boost14multiprecision6numberINS0_8backends13cpp_bin_floatILj100ELNS2_15digit_base_typeE10EviLi0ELi0EEELNS0_26expression_template_optionE0EE7backendEv,comdat
	.align 2
	.weak	_ZNR5boost14multiprecision6numberINS0_8backends13cpp_bin_floatILj100ELNS2_15digit_base_typeE10EviLi0ELi0EEELNS0_26expression_template_optionE0EE7backendEv
	.type	_ZNR5boost14multiprecision6numberINS0_8backends13cpp_bin_floatILj100ELNS2_15digit_base_typeE10EviLi0ELi0EEELNS0_26expression_template_optionE0EE7backendEv, @function
_ZNR5boost14multiprecision6numberINS0_8backends13cpp_bin_floatILj100ELNS2_15digit_base_typeE10EviLi0ELi0EEELNS0_26expression_template_optionE0EE7backendEv:
.LFB14432:
	.cfi_startproc
	endbr64
	pushq	%rbp
	.cfi_def_cfa_offset 16
	.cfi_offset 6, -16
	movq	%rsp, %rbp
	.cfi_def_cfa_register 6
	movq	%rdi, -8(%rbp)
	movq	-8(%rbp), %rax
	popq	%rbp
	.cfi_def_cfa 7, 8
	ret
	.cfi_endproc
.LFE14432:
	.size	_ZNR5boost14multiprecision6numberINS0_8backends13cpp_bin_floatILj100ELNS2_15digit_base_typeE10EviLi0ELi0EEELNS0_26expression_template_optionE0EE7backendEv, .-_ZNR5boost14multiprecision6numberINS0_8backends13cpp_bin_floatILj100ELNS2_15digit_base_typeE10EviLi0ELi0EEELNS0_26expression_template_optionE0EE7backendEv
	.section	.text._ZN5boost14multiprecision8backends12cpp_int_baseILj0ELj4294967295ELNS0_16cpp_integer_typeE1ELNS0_18cpp_int_check_typeE0ESaIyELb0EEC2Ev,"axG",@progbits,_ZN5boost14multiprecision8backends12cpp_int_baseILj0ELj4294967295ELNS0_16cpp_integer_typeE1ELNS0_18cpp_int_check_typeE0ESaIyELb0EEC5Ev,comdat
	.align 2
	.weak	_ZN5boost14multiprecision8backends12cpp_int_baseILj0ELj4294967295ELNS0_16cpp_integer_typeE1ELNS0_18cpp_int_check_typeE0ESaIyELb0EEC2Ev
	.type	_ZN5boost14multiprecision8backends12cpp_int_baseILj0ELj4294967295ELNS0_16cpp_integer_typeE1ELNS0_18cpp_int_check_typeE0ESaIyELb0EEC2Ev, @function
_ZN5boost14multiprecision8backends12cpp_int_baseILj0ELj4294967295ELNS0_16cpp_integer_typeE1ELNS0_18cpp_int_check_typeE0ESaIyELb0EEC2Ev:
.LFB14435:
	.cfi_startproc
	endbr64
	pushq	%rbp
	.cfi_def_cfa_offset 16
	.cfi_offset 6, -16
	movq	%rsp, %rbp
	.cfi_def_cfa_register 6
	subq	$16, %rsp
	movq	%rdi, -8(%rbp)
	movq	-8(%rbp), %rax
	movq	%rax, %rdi
	call	_ZN5boost6empty_11empty_valueISaIyELj0ELb1EEC2Ev
	movq	-8(%rbp), %rax
	movq	%rax, %rdi
	call	_ZN5boost14multiprecision8backends12cpp_int_baseILj0ELj4294967295ELNS0_16cpp_integer_typeE1ELNS0_18cpp_int_check_typeE0ESaIyELb0EE9data_typeC1Ev
	movq	-8(%rbp), %rax
	movl	$1, 16(%rax)
	movq	-8(%rbp), %rax
	movb	$0, 20(%rax)
	movq	-8(%rbp), %rax
	movb	$1, 21(%rax)
	nop
	leave
	.cfi_def_cfa 7, 8
	ret
	.cfi_endproc
.LFE14435:
	.size	_ZN5boost14multiprecision8backends12cpp_int_baseILj0ELj4294967295ELNS0_16cpp_integer_typeE1ELNS0_18cpp_int_check_typeE0ESaIyELb0EEC2Ev, .-_ZN5boost14multiprecision8backends12cpp_int_baseILj0ELj4294967295ELNS0_16cpp_integer_typeE1ELNS0_18cpp_int_check_typeE0ESaIyELb0EEC2Ev
	.weak	_ZN5boost14multiprecision8backends12cpp_int_baseILj0ELj4294967295ELNS0_16cpp_integer_typeE1ELNS0_18cpp_int_check_typeE0ESaIyELb0EEC1Ev
	.set	_ZN5boost14multiprecision8backends12cpp_int_baseILj0ELj4294967295ELNS0_16cpp_integer_typeE1ELNS0_18cpp_int_check_typeE0ESaIyELb0EEC1Ev,_ZN5boost14multiprecision8backends12cpp_int_baseILj0ELj4294967295ELNS0_16cpp_integer_typeE1ELNS0_18cpp_int_check_typeE0ESaIyELb0EEC2Ev
	.section	.text._ZNKR5boost14multiprecision6numberINS0_8backends13cpp_bin_floatILj100ELNS2_15digit_base_typeE10EviLi0ELi0EEELNS0_26expression_template_optionE0EE7backendEv,"axG",@progbits,_ZNKR5boost14multiprecision6numberINS0_8backends13cpp_bin_floatILj100ELNS2_15digit_base_typeE10EviLi0ELi0EEELNS0_26expression_template_optionE0EE7backendEv,comdat
	.align 2
	.weak	_ZNKR5boost14multiprecision6numberINS0_8backends13cpp_bin_floatILj100ELNS2_15digit_base_typeE10EviLi0ELi0EEELNS0_26expression_template_optionE0EE7backendEv
	.type	_ZNKR5boost14multiprecision6numberINS0_8backends13cpp_bin_floatILj100ELNS2_15digit_base_typeE10EviLi0ELi0EEELNS0_26expression_template_optionE0EE7backendEv, @function
_ZNKR5boost14multiprecision6numberINS0_8backends13cpp_bin_floatILj100ELNS2_15digit_base_typeE10EviLi0ELi0EEELNS0_26expression_template_optionE0EE7backendEv:
.LFB14437:
	.cfi_startproc
	endbr64
	pushq	%rbp
	.cfi_def_cfa_offset 16
	.cfi_offset 6, -16
	movq	%rsp, %rbp
	.cfi_def_cfa_register 6
	movq	%rdi, -8(%rbp)
	movq	-8(%rbp), %rax
	popq	%rbp
	.cfi_def_cfa 7, 8
	ret
	.cfi_endproc
.LFE14437:
	.size	_ZNKR5boost14multiprecision6numberINS0_8backends13cpp_bin_floatILj100ELNS2_15digit_base_typeE10EviLi0ELi0EEELNS0_26expression_template_optionE0EE7backendEv, .-_ZNKR5boost14multiprecision6numberINS0_8backends13cpp_bin_floatILj100ELNS2_15digit_base_typeE10EviLi0ELi0EEELNS0_26expression_template_optionE0EE7backendEv
	.section	.text._ZSt4moveIRN5boost14multiprecision6numberINS1_8backends13cpp_bin_floatILj100ELNS3_15digit_base_typeE10EviLi0ELi0EEELNS1_26expression_template_optionE0EEEEONSt16remove_referenceIT_E4typeEOSB_,"axG",@progbits,_ZSt4moveIRN5boost14multiprecision6numberINS1_8backends13cpp_bin_floatILj100ELNS3_15digit_base_typeE10EviLi0ELi0EEELNS1_26expression_template_optionE0EEEEONSt16remove_referenceIT_E4typeEOSB_,comdat
	.weak	_ZSt4moveIRN5boost14multiprecision6numberINS1_8backends13cpp_bin_floatILj100ELNS3_15digit_base_typeE10EviLi0ELi0EEELNS1_26expression_template_optionE0EEEEONSt16remove_referenceIT_E4typeEOSB_
	.type	_ZSt4moveIRN5boost14multiprecision6numberINS1_8backends13cpp_bin_floatILj100ELNS3_15digit_base_typeE10EviLi0ELi0EEELNS1_26expression_template_optionE0EEEEONSt16remove_referenceIT_E4typeEOSB_, @function
_ZSt4moveIRN5boost14multiprecision6numberINS1_8backends13cpp_bin_floatILj100ELNS3_15digit_base_typeE10EviLi0ELi0EEELNS1_26expression_template_optionE0EEEEONSt16remove_referenceIT_E4typeEOSB_:
.LFB14439:
	.cfi_startproc
	endbr64
	pushq	%rbp
	.cfi_def_cfa_offset 16
	.cfi_offset 6, -16
	movq	%rsp, %rbp
	.cfi_def_cfa_register 6
	movq	%rdi, -8(%rbp)
	movq	-8(%rbp), %rax
	popq	%rbp
	.cfi_def_cfa 7, 8
	ret
	.cfi_endproc
.LFE14439:
	.size	_ZSt4moveIRN5boost14multiprecision6numberINS1_8backends13cpp_bin_floatILj100ELNS3_15digit_base_typeE10EviLi0ELi0EEELNS1_26expression_template_optionE0EEEEONSt16remove_referenceIT_E4typeEOSB_, .-_ZSt4moveIRN5boost14multiprecision6numberINS1_8backends13cpp_bin_floatILj100ELNS3_15digit_base_typeE10EviLi0ELi0EEELNS1_26expression_template_optionE0EEEEONSt16remove_referenceIT_E4typeEOSB_
	.section	.text._ZN5boost14multiprecision6numberINS0_8backends13cpp_bin_floatILj100ELNS2_15digit_base_typeE10EviLi0ELi0EEELNS0_26expression_template_optionE0EEC2EOS7_,"axG",@progbits,_ZN5boost14multiprecision6numberINS0_8backends13cpp_bin_floatILj100ELNS2_15digit_base_typeE10EviLi0ELi0EEELNS0_26expression_template_optionE0EEC5EOS7_,comdat
	.align 2
	.weak	_ZN5boost14multiprecision6numberINS0_8backends13cpp_bin_floatILj100ELNS2_15digit_base_typeE10EviLi0ELi0EEELNS0_26expression_template_optionE0EEC2EOS7_
	.type	_ZN5boost14multiprecision6numberINS0_8backends13cpp_bin_floatILj100ELNS2_15digit_base_typeE10EviLi0ELi0EEELNS0_26expression_template_optionE0EEC2EOS7_, @function
_ZN5boost14multiprecision6numberINS0_8backends13cpp_bin_floatILj100ELNS2_15digit_base_typeE10EviLi0ELi0EEELNS0_26expression_template_optionE0EEC2EOS7_:
.LFB14441:
	.cfi_startproc
	endbr64
	pushq	%rbp
	.cfi_def_cfa_offset 16
	.cfi_offset 6, -16
	movq	%rsp, %rbp
	.cfi_def_cfa_register 6
	subq	$16, %rsp
	movq	%rdi, -8(%rbp)
	movq	%rsi, -16(%rbp)
	movq	-8(%rbp), %rax
	movq	-16(%rbp), %rdx
	movq	%rdx, %rsi
	movq	%rax, %rdi
	call	_ZN5boost14multiprecision8backends13cpp_bin_floatILj100ELNS1_15digit_base_typeE10EviLi0ELi0EEC1ERKS4_
	nop
	leave
	.cfi_def_cfa 7, 8
	ret
	.cfi_endproc
.LFE14441:
	.size	_ZN5boost14multiprecision6numberINS0_8backends13cpp_bin_floatILj100ELNS2_15digit_base_typeE10EviLi0ELi0EEELNS0_26expression_template_optionE0EEC2EOS7_, .-_ZN5boost14multiprecision6numberINS0_8backends13cpp_bin_floatILj100ELNS2_15digit_base_typeE10EviLi0ELi0EEELNS0_26expression_template_optionE0EEC2EOS7_
	.weak	_ZN5boost14multiprecision6numberINS0_8backends13cpp_bin_floatILj100ELNS2_15digit_base_typeE10EviLi0ELi0EEELNS0_26expression_template_optionE0EEC1EOS7_
	.set	_ZN5boost14multiprecision6numberINS0_8backends13cpp_bin_floatILj100ELNS2_15digit_base_typeE10EviLi0ELi0EEELNS0_26expression_template_optionE0EEC1EOS7_,_ZN5boost14multiprecision6numberINS0_8backends13cpp_bin_floatILj100ELNS2_15digit_base_typeE10EviLi0ELi0EEELNS0_26expression_template_optionE0EEC2EOS7_
	.section	.text._ZNSt16_Sp_counted_baseILN9__gnu_cxx12_Lock_policyE2EE10_M_releaseEv,"axG",@progbits,_ZNSt16_Sp_counted_baseILN9__gnu_cxx12_Lock_policyE2EE10_M_releaseEv,comdat
	.align 2
	.weak	_ZNSt16_Sp_counted_baseILN9__gnu_cxx12_Lock_policyE2EE10_M_releaseEv
	.type	_ZNSt16_Sp_counted_baseILN9__gnu_cxx12_Lock_policyE2EE10_M_releaseEv, @function
_ZNSt16_Sp_counted_baseILN9__gnu_cxx12_Lock_policyE2EE10_M_releaseEv:
.LFB14462:
	.cfi_startproc
	endbr64
	pushq	%rbp
	.cfi_def_cfa_offset 16
	.cfi_offset 6, -16
	movq	%rsp, %rbp
	.cfi_def_cfa_register 6
	subq	$16, %rsp
	movq	%rdi, -8(%rbp)
	movq	-8(%rbp), %rax
	addq	$8, %rax
	movl	$-1, %esi
	movq	%rax, %rdi
	call	_ZN9__gnu_cxxL27__exchange_and_add_dispatchEPii
	cmpl	$1, %eax
	sete	%al
	testb	%al, %al
	je	.L279
	movq	-8(%rbp), %rax
	movq	(%rax), %rax
	addq	$16, %rax
	movq	(%rax), %rdx
	movq	-8(%rbp), %rax
	movq	%rax, %rdi
	call	*%rdx
	movq	-8(%rbp), %rax
	addq	$12, %rax
	movl	$-1, %esi
	movq	%rax, %rdi
	call	_ZN9__gnu_cxxL27__exchange_and_add_dispatchEPii
	cmpl	$1, %eax
	sete	%al
	testb	%al, %al
	je	.L279
	movq	-8(%rbp), %rax
	movq	(%rax), %rax
	addq	$24, %rax
	movq	(%rax), %rdx
	movq	-8(%rbp), %rax
	movq	%rax, %rdi
	call	*%rdx
.L279:
	nop
	leave
	.cfi_def_cfa 7, 8
	ret
	.cfi_endproc
.LFE14462:
	.size	_ZNSt16_Sp_counted_baseILN9__gnu_cxx12_Lock_policyE2EE10_M_releaseEv, .-_ZNSt16_Sp_counted_baseILN9__gnu_cxx12_Lock_policyE2EE10_M_releaseEv
	.section	.text._ZNSaINSt7__cxx1112basic_stringIcSt11char_traitsIcESaIcEEEEC2Ev,"axG",@progbits,_ZNSaINSt7__cxx1112basic_stringIcSt11char_traitsIcESaIcEEEEC5Ev,comdat
	.align 2
	.weak	_ZNSaINSt7__cxx1112basic_stringIcSt11char_traitsIcESaIcEEEEC2Ev
	.type	_ZNSaINSt7__cxx1112basic_stringIcSt11char_traitsIcESaIcEEEEC2Ev, @function
_ZNSaINSt7__cxx1112basic_stringIcSt11char_traitsIcESaIcEEEEC2Ev:
.LFB14619:
	.cfi_startproc
	endbr64
	pushq	%rbp
	.cfi_def_cfa_offset 16
	.cfi_offset 6, -16
	movq	%rsp, %rbp
	.cfi_def_cfa_register 6
	subq	$16, %rsp
	movq	%rdi, -8(%rbp)
	movq	-8(%rbp), %rax
	movq	%rax, %rdi
	call	_ZN9__gnu_cxx13new_allocatorINSt7__cxx1112basic_stringIcSt11char_traitsIcESaIcEEEEC2Ev
	nop
	leave
	.cfi_def_cfa 7, 8
	ret
	.cfi_endproc
.LFE14619:
	.size	_ZNSaINSt7__cxx1112basic_stringIcSt11char_traitsIcESaIcEEEEC2Ev, .-_ZNSaINSt7__cxx1112basic_stringIcSt11char_traitsIcESaIcEEEEC2Ev
	.weak	_ZNSaINSt7__cxx1112basic_stringIcSt11char_traitsIcESaIcEEEEC1Ev
	.set	_ZNSaINSt7__cxx1112basic_stringIcSt11char_traitsIcESaIcEEEEC1Ev,_ZNSaINSt7__cxx1112basic_stringIcSt11char_traitsIcESaIcEEEEC2Ev
	.section	.text._ZNSt12_Vector_baseINSt7__cxx1112basic_stringIcSt11char_traitsIcESaIcEEESaIS5_EE17_Vector_impl_dataC2Ev,"axG",@progbits,_ZNSt12_Vector_baseINSt7__cxx1112basic_stringIcSt11char_traitsIcESaIcEEESaIS5_EE17_Vector_impl_dataC5Ev,comdat
	.align 2
	.weak	_ZNSt12_Vector_baseINSt7__cxx1112basic_stringIcSt11char_traitsIcESaIcEEESaIS5_EE17_Vector_impl_dataC2Ev
	.type	_ZNSt12_Vector_baseINSt7__cxx1112basic_stringIcSt11char_traitsIcESaIcEEESaIS5_EE17_Vector_impl_dataC2Ev, @function
_ZNSt12_Vector_baseINSt7__cxx1112basic_stringIcSt11char_traitsIcESaIcEEESaIS5_EE17_Vector_impl_dataC2Ev:
.LFB14622:
	.cfi_startproc
	endbr64
	pushq	%rbp
	.cfi_def_cfa_offset 16
	.cfi_offset 6, -16
	movq	%rsp, %rbp
	.cfi_def_cfa_register 6
	movq	%rdi, -8(%rbp)
	movq	-8(%rbp), %rax
	movq	$0, (%rax)
	movq	-8(%rbp), %rax
	movq	$0, 8(%rax)
	movq	-8(%rbp), %rax
	movq	$0, 16(%rax)
	nop
	popq	%rbp
	.cfi_def_cfa 7, 8
	ret
	.cfi_endproc
.LFE14622:
	.size	_ZNSt12_Vector_baseINSt7__cxx1112basic_stringIcSt11char_traitsIcESaIcEEESaIS5_EE17_Vector_impl_dataC2Ev, .-_ZNSt12_Vector_baseINSt7__cxx1112basic_stringIcSt11char_traitsIcESaIcEEESaIS5_EE17_Vector_impl_dataC2Ev
	.weak	_ZNSt12_Vector_baseINSt7__cxx1112basic_stringIcSt11char_traitsIcESaIcEEESaIS5_EE17_Vector_impl_dataC1Ev
	.set	_ZNSt12_Vector_baseINSt7__cxx1112basic_stringIcSt11char_traitsIcESaIcEEESaIS5_EE17_Vector_impl_dataC1Ev,_ZNSt12_Vector_baseINSt7__cxx1112basic_stringIcSt11char_traitsIcESaIcEEESaIS5_EE17_Vector_impl_dataC2Ev
	.section	.text._ZN9__gnu_cxx13new_allocatorINSt7__cxx1112basic_stringIcSt11char_traitsIcESaIcEEEED2Ev,"axG",@progbits,_ZN9__gnu_cxx13new_allocatorINSt7__cxx1112basic_stringIcSt11char_traitsIcESaIcEEEED5Ev,comdat
	.align 2
	.weak	_ZN9__gnu_cxx13new_allocatorINSt7__cxx1112basic_stringIcSt11char_traitsIcESaIcEEEED2Ev
	.type	_ZN9__gnu_cxx13new_allocatorINSt7__cxx1112basic_stringIcSt11char_traitsIcESaIcEEEED2Ev, @function
_ZN9__gnu_cxx13new_allocatorINSt7__cxx1112basic_stringIcSt11char_traitsIcESaIcEEEED2Ev:
.LFB14625:
	.cfi_startproc
	endbr64
	pushq	%rbp
	.cfi_def_cfa_offset 16
	.cfi_offset 6, -16
	movq	%rsp, %rbp
	.cfi_def_cfa_register 6
	movq	%rdi, -8(%rbp)
	nop
	popq	%rbp
	.cfi_def_cfa 7, 8
	ret
	.cfi_endproc
.LFE14625:
	.size	_ZN9__gnu_cxx13new_allocatorINSt7__cxx1112basic_stringIcSt11char_traitsIcESaIcEEEED2Ev, .-_ZN9__gnu_cxx13new_allocatorINSt7__cxx1112basic_stringIcSt11char_traitsIcESaIcEEEED2Ev
	.weak	_ZN9__gnu_cxx13new_allocatorINSt7__cxx1112basic_stringIcSt11char_traitsIcESaIcEEEED1Ev
	.set	_ZN9__gnu_cxx13new_allocatorINSt7__cxx1112basic_stringIcSt11char_traitsIcESaIcEEEED1Ev,_ZN9__gnu_cxx13new_allocatorINSt7__cxx1112basic_stringIcSt11char_traitsIcESaIcEEEED2Ev
	.section	.text._ZNSt12_Vector_baseINSt7__cxx1112basic_stringIcSt11char_traitsIcESaIcEEESaIS5_EE13_M_deallocateEPS5_m,"axG",@progbits,_ZNSt12_Vector_baseINSt7__cxx1112basic_stringIcSt11char_traitsIcESaIcEEESaIS5_EE13_M_deallocateEPS5_m,comdat
	.align 2
	.weak	_ZNSt12_Vector_baseINSt7__cxx1112basic_stringIcSt11char_traitsIcESaIcEEESaIS5_EE13_M_deallocateEPS5_m
	.type	_ZNSt12_Vector_baseINSt7__cxx1112basic_stringIcSt11char_traitsIcESaIcEEESaIS5_EE13_M_deallocateEPS5_m, @function
_ZNSt12_Vector_baseINSt7__cxx1112basic_stringIcSt11char_traitsIcESaIcEEESaIS5_EE13_M_deallocateEPS5_m:
.LFB14627:
	.cfi_startproc
	endbr64
	pushq	%rbp
	.cfi_def_cfa_offset 16
	.cfi_offset 6, -16
	movq	%rsp, %rbp
	.cfi_def_cfa_register 6
	subq	$32, %rsp
	movq	%rdi, -8(%rbp)
	movq	%rsi, -16(%rbp)
	movq	%rdx, -24(%rbp)
	cmpq	$0, -16(%rbp)
	je	.L285
	movq	-8(%rbp), %rax
	movq	-24(%rbp), %rdx
	movq	-16(%rbp), %rcx
	movq	%rcx, %rsi
	movq	%rax, %rdi
	call	_ZNSt16allocator_traitsISaINSt7__cxx1112basic_stringIcSt11char_traitsIcESaIcEEEEE10deallocateERS6_PS5_m
.L285:
	nop
	leave
	.cfi_def_cfa 7, 8
	ret
	.cfi_endproc
.LFE14627:
	.size	_ZNSt12_Vector_baseINSt7__cxx1112basic_stringIcSt11char_traitsIcESaIcEEESaIS5_EE13_M_deallocateEPS5_m, .-_ZNSt12_Vector_baseINSt7__cxx1112basic_stringIcSt11char_traitsIcESaIcEEESaIS5_EE13_M_deallocateEPS5_m
	.section	.text._ZNSt12_Vector_baseINSt7__cxx1112basic_stringIcSt11char_traitsIcESaIcEEESaIS5_EE19_M_get_Tp_allocatorEv,"axG",@progbits,_ZNSt12_Vector_baseINSt7__cxx1112basic_stringIcSt11char_traitsIcESaIcEEESaIS5_EE19_M_get_Tp_allocatorEv,comdat
	.align 2
	.weak	_ZNSt12_Vector_baseINSt7__cxx1112basic_stringIcSt11char_traitsIcESaIcEEESaIS5_EE19_M_get_Tp_allocatorEv
	.type	_ZNSt12_Vector_baseINSt7__cxx1112basic_stringIcSt11char_traitsIcESaIcEEESaIS5_EE19_M_get_Tp_allocatorEv, @function
_ZNSt12_Vector_baseINSt7__cxx1112basic_stringIcSt11char_traitsIcESaIcEEESaIS5_EE19_M_get_Tp_allocatorEv:
.LFB14628:
	.cfi_startproc
	endbr64
	pushq	%rbp
	.cfi_def_cfa_offset 16
	.cfi_offset 6, -16
	movq	%rsp, %rbp
	.cfi_def_cfa_register 6
	movq	%rdi, -8(%rbp)
	movq	-8(%rbp), %rax
	popq	%rbp
	.cfi_def_cfa 7, 8
	ret
	.cfi_endproc
.LFE14628:
	.size	_ZNSt12_Vector_baseINSt7__cxx1112basic_stringIcSt11char_traitsIcESaIcEEESaIS5_EE19_M_get_Tp_allocatorEv, .-_ZNSt12_Vector_baseINSt7__cxx1112basic_stringIcSt11char_traitsIcESaIcEEESaIS5_EE19_M_get_Tp_allocatorEv
	.section	.text._ZSt8_DestroyIPNSt7__cxx1112basic_stringIcSt11char_traitsIcESaIcEEES5_EvT_S7_RSaIT0_E,"axG",@progbits,_ZSt8_DestroyIPNSt7__cxx1112basic_stringIcSt11char_traitsIcESaIcEEES5_EvT_S7_RSaIT0_E,comdat
	.weak	_ZSt8_DestroyIPNSt7__cxx1112basic_stringIcSt11char_traitsIcESaIcEEES5_EvT_S7_RSaIT0_E
	.type	_ZSt8_DestroyIPNSt7__cxx1112basic_stringIcSt11char_traitsIcESaIcEEES5_EvT_S7_RSaIT0_E, @function
_ZSt8_DestroyIPNSt7__cxx1112basic_stringIcSt11char_traitsIcESaIcEEES5_EvT_S7_RSaIT0_E:
.LFB14629:
	.cfi_startproc
	endbr64
	pushq	%rbp
	.cfi_def_cfa_offset 16
	.cfi_offset 6, -16
	movq	%rsp, %rbp
	.cfi_def_cfa_register 6
	subq	$32, %rsp
	movq	%rdi, -8(%rbp)
	movq	%rsi, -16(%rbp)
	movq	%rdx, -24(%rbp)
	movq	-16(%rbp), %rdx
	movq	-8(%rbp), %rax
	movq	%rdx, %rsi
	movq	%rax, %rdi
	call	_ZSt8_DestroyIPNSt7__cxx1112basic_stringIcSt11char_traitsIcESaIcEEEEvT_S7_
	nop
	leave
	.cfi_def_cfa 7, 8
	ret
	.cfi_endproc
.LFE14629:
	.size	_ZSt8_DestroyIPNSt7__cxx1112basic_stringIcSt11char_traitsIcESaIcEEES5_EvT_S7_RSaIT0_E, .-_ZSt8_DestroyIPNSt7__cxx1112basic_stringIcSt11char_traitsIcESaIcEEES5_EvT_S7_RSaIT0_E
	.section	.text._ZNSt16allocator_traitsISaINSt7__cxx1112basic_stringIcSt11char_traitsIcESaIcEEEEE9constructIS5_JRKS5_EEEvRS6_PT_DpOT0_,"axG",@progbits,_ZNSt16allocator_traitsISaINSt7__cxx1112basic_stringIcSt11char_traitsIcESaIcEEEEE9constructIS5_JRKS5_EEEvRS6_PT_DpOT0_,comdat
	.weak	_ZNSt16allocator_traitsISaINSt7__cxx1112basic_stringIcSt11char_traitsIcESaIcEEEEE9constructIS5_JRKS5_EEEvRS6_PT_DpOT0_
	.type	_ZNSt16allocator_traitsISaINSt7__cxx1112basic_stringIcSt11char_traitsIcESaIcEEEEE9constructIS5_JRKS5_EEEvRS6_PT_DpOT0_, @function
_ZNSt16allocator_traitsISaINSt7__cxx1112basic_stringIcSt11char_traitsIcESaIcEEEEE9constructIS5_JRKS5_EEEvRS6_PT_DpOT0_:
.LFB14631:
	.cfi_startproc
	endbr64
	pushq	%rbp
	.cfi_def_cfa_offset 16
	.cfi_offset 6, -16
	movq	%rsp, %rbp
	.cfi_def_cfa_register 6
	subq	$32, %rsp
	movq	%rdi, -8(%rbp)
	movq	%rsi, -16(%rbp)
	movq	%rdx, -24(%rbp)
	movq	-24(%rbp), %rax
	movq	%rax, %rdi
	call	_ZSt7forwardIRKNSt7__cxx1112basic_stringIcSt11char_traitsIcESaIcEEEEOT_RNSt16remove_referenceIS8_E4typeE
	movq	%rax, %rdx
	movq	-16(%rbp), %rcx
	movq	-8(%rbp), %rax
	movq	%rcx, %rsi
	movq	%rax, %rdi
	call	_ZN9__gnu_cxx13new_allocatorINSt7__cxx1112basic_stringIcSt11char_traitsIcESaIcEEEE9constructIS6_JRKS6_EEEvPT_DpOT0_
	nop
	leave
	.cfi_def_cfa 7, 8
	ret
	.cfi_endproc
.LFE14631:
	.size	_ZNSt16allocator_traitsISaINSt7__cxx1112basic_stringIcSt11char_traitsIcESaIcEEEEE9constructIS5_JRKS5_EEEvRS6_PT_DpOT0_, .-_ZNSt16allocator_traitsISaINSt7__cxx1112basic_stringIcSt11char_traitsIcESaIcEEEEE9constructIS5_JRKS5_EEEvRS6_PT_DpOT0_
	.section	.text._ZNSt6vectorINSt7__cxx1112basic_stringIcSt11char_traitsIcESaIcEEESaIS5_EE15_S_use_relocateEv,"axG",@progbits,_ZNSt6vectorINSt7__cxx1112basic_stringIcSt11char_traitsIcESaIcEEESaIS5_EE15_S_use_relocateEv,comdat
	.weak	_ZNSt6vectorINSt7__cxx1112basic_stringIcSt11char_traitsIcESaIcEEESaIS5_EE15_S_use_relocateEv
	.type	_ZNSt6vectorINSt7__cxx1112basic_stringIcSt11char_traitsIcESaIcEEESaIS5_EE15_S_use_relocateEv, @function
_ZNSt6vectorINSt7__cxx1112basic_stringIcSt11char_traitsIcESaIcEEESaIS5_EE15_S_use_relocateEv:
.LFB14633:
	.cfi_startproc
	endbr64
	pushq	%rbp
	.cfi_def_cfa_offset 16
	.cfi_offset 6, -16
	movq	%rsp, %rbp
	.cfi_def_cfa_register 6
	subq	$16, %rsp
	movq	%fs:40, %rax
	movq	%rax, -8(%rbp)
	xorl	%eax, %eax
	call	_ZNSt6vectorINSt7__cxx1112basic_stringIcSt11char_traitsIcESaIcEEESaIS5_EE19_S_nothrow_relocateESt17integral_constantIbLb1EE
	movq	-8(%rbp), %rdx
	xorq	%fs:40, %rdx
	je	.L292
	call	__stack_chk_fail@PLT
.L292:
	leave
	.cfi_def_cfa 7, 8
	ret
	.cfi_endproc
.LFE14633:
	.size	_ZNSt6vectorINSt7__cxx1112basic_stringIcSt11char_traitsIcESaIcEEESaIS5_EE15_S_use_relocateEv, .-_ZNSt6vectorINSt7__cxx1112basic_stringIcSt11char_traitsIcESaIcEEESaIS5_EE15_S_use_relocateEv
	.section	.text._ZNSt6vectorINSt7__cxx1112basic_stringIcSt11char_traitsIcESaIcEEESaIS5_EE19_S_nothrow_relocateESt17integral_constantIbLb1EE,"axG",@progbits,_ZNSt6vectorINSt7__cxx1112basic_stringIcSt11char_traitsIcESaIcEEESaIS5_EE19_S_nothrow_relocateESt17integral_constantIbLb1EE,comdat
	.weak	_ZNSt6vectorINSt7__cxx1112basic_stringIcSt11char_traitsIcESaIcEEESaIS5_EE19_S_nothrow_relocateESt17integral_constantIbLb1EE
	.type	_ZNSt6vectorINSt7__cxx1112basic_stringIcSt11char_traitsIcESaIcEEESaIS5_EE19_S_nothrow_relocateESt17integral_constantIbLb1EE, @function
_ZNSt6vectorINSt7__cxx1112basic_stringIcSt11char_traitsIcESaIcEEESaIS5_EE19_S_nothrow_relocateESt17integral_constantIbLb1EE:
.LFB14634:
	.cfi_startproc
	endbr64
	pushq	%rbp
	.cfi_def_cfa_offset 16
	.cfi_offset 6, -16
	movq	%rsp, %rbp
	.cfi_def_cfa_register 6
	movl	$1, %eax
	popq	%rbp
	.cfi_def_cfa 7, 8
	ret
	.cfi_endproc
.LFE14634:
	.size	_ZNSt6vectorINSt7__cxx1112basic_stringIcSt11char_traitsIcESaIcEEESaIS5_EE19_S_nothrow_relocateESt17integral_constantIbLb1EE, .-_ZNSt6vectorINSt7__cxx1112basic_stringIcSt11char_traitsIcESaIcEEESaIS5_EE19_S_nothrow_relocateESt17integral_constantIbLb1EE
	.section	.rodata
.LC11:
	.string	"vector::_M_realloc_insert"
	.section	.text._ZNSt6vectorINSt7__cxx1112basic_stringIcSt11char_traitsIcESaIcEEESaIS5_EE17_M_realloc_insertIJRKS5_EEEvN9__gnu_cxx17__normal_iteratorIPS5_S7_EEDpOT_,"axG",@progbits,_ZNSt6vectorINSt7__cxx1112basic_stringIcSt11char_traitsIcESaIcEEESaIS5_EE17_M_realloc_insertIJRKS5_EEEvN9__gnu_cxx17__normal_iteratorIPS5_S7_EEDpOT_,comdat
	.align 2
	.weak	_ZNSt6vectorINSt7__cxx1112basic_stringIcSt11char_traitsIcESaIcEEESaIS5_EE17_M_realloc_insertIJRKS5_EEEvN9__gnu_cxx17__normal_iteratorIPS5_S7_EEDpOT_
	.type	_ZNSt6vectorINSt7__cxx1112basic_stringIcSt11char_traitsIcESaIcEEESaIS5_EE17_M_realloc_insertIJRKS5_EEEvN9__gnu_cxx17__normal_iteratorIPS5_S7_EEDpOT_, @function
_ZNSt6vectorINSt7__cxx1112basic_stringIcSt11char_traitsIcESaIcEEESaIS5_EE17_M_realloc_insertIJRKS5_EEEvN9__gnu_cxx17__normal_iteratorIPS5_S7_EEDpOT_:
.LFB14632:
	.cfi_startproc
	.cfi_personality 0x9b,DW.ref.__gxx_personality_v0
	.cfi_lsda 0x1b,.LLSDA14632
	endbr64
	pushq	%rbp
	.cfi_def_cfa_offset 16
	.cfi_offset 6, -16
	movq	%rsp, %rbp
	.cfi_def_cfa_register 6
	pushq	%rbx
	subq	$104, %rsp
	.cfi_offset 3, -24
	movq	%rdi, -88(%rbp)
	movq	%rsi, -96(%rbp)
	movq	%rdx, -104(%rbp)
	movq	%fs:40, %rax
	movq	%rax, -24(%rbp)
	xorl	%eax, %eax
	movq	-88(%rbp), %rax
	leaq	.LC11(%rip), %rdx
	movl	$1, %esi
	movq	%rax, %rdi
.LEHB36:
	call	_ZNKSt6vectorINSt7__cxx1112basic_stringIcSt11char_traitsIcESaIcEEESaIS5_EE12_M_check_lenEmPKc
	movq	%rax, -64(%rbp)
	movq	-88(%rbp), %rax
	movq	(%rax), %rax
	movq	%rax, -56(%rbp)
	movq	-88(%rbp), %rax
	movq	8(%rax), %rax
	movq	%rax, -48(%rbp)
	movq	-88(%rbp), %rax
	movq	%rax, %rdi
	call	_ZNSt6vectorINSt7__cxx1112basic_stringIcSt11char_traitsIcESaIcEEESaIS5_EE5beginEv
	movq	%rax, -80(%rbp)
	leaq	-80(%rbp), %rdx
	leaq	-96(%rbp), %rax
	movq	%rdx, %rsi
	movq	%rax, %rdi
	call	_ZN9__gnu_cxxmiIPNSt7__cxx1112basic_stringIcSt11char_traitsIcESaIcEEESt6vectorIS6_SaIS6_EEEENS_17__normal_iteratorIT_T0_E15difference_typeERKSE_SH_
	movq	%rax, -40(%rbp)
	movq	-88(%rbp), %rax
	movq	-64(%rbp), %rdx
	movq	%rdx, %rsi
	movq	%rax, %rdi
	call	_ZNSt12_Vector_baseINSt7__cxx1112basic_stringIcSt11char_traitsIcESaIcEEESaIS5_EE11_M_allocateEm
.LEHE36:
	movq	%rax, -32(%rbp)
	movq	-32(%rbp), %rax
	movq	%rax, -72(%rbp)
	movq	-104(%rbp), %rax
	movq	%rax, %rdi
	call	_ZSt7forwardIRKNSt7__cxx1112basic_stringIcSt11char_traitsIcESaIcEEEEOT_RNSt16remove_referenceIS8_E4typeE
	movq	%rax, %rdx
	movq	-40(%rbp), %rax
	salq	$5, %rax
	movq	%rax, %rcx
	movq	-32(%rbp), %rax
	addq	%rax, %rcx
	movq	-88(%rbp), %rax
	movq	%rcx, %rsi
	movq	%rax, %rdi
.LEHB37:
	call	_ZNSt16allocator_traitsISaINSt7__cxx1112basic_stringIcSt11char_traitsIcESaIcEEEEE9constructIS5_JRKS5_EEEvRS6_PT_DpOT0_
	movq	$0, -72(%rbp)
	call	_ZNSt6vectorINSt7__cxx1112basic_stringIcSt11char_traitsIcESaIcEEESaIS5_EE15_S_use_relocateEv
	testb	%al, %al
	je	.L296
	movq	-88(%rbp), %rax
	movq	%rax, %rdi
	call	_ZNSt12_Vector_baseINSt7__cxx1112basic_stringIcSt11char_traitsIcESaIcEEESaIS5_EE19_M_get_Tp_allocatorEv
	movq	%rax, %rbx
	leaq	-96(%rbp), %rax
	movq	%rax, %rdi
	call	_ZNK9__gnu_cxx17__normal_iteratorIPNSt7__cxx1112basic_stringIcSt11char_traitsIcESaIcEEESt6vectorIS6_SaIS6_EEE4baseEv
	movq	(%rax), %rsi
	movq	-32(%rbp), %rdx
	movq	-56(%rbp), %rax
	movq	%rbx, %rcx
	movq	%rax, %rdi
	call	_ZNSt6vectorINSt7__cxx1112basic_stringIcSt11char_traitsIcESaIcEEESaIS5_EE11_S_relocateEPS5_S8_S8_RS6_
	movq	%rax, -72(%rbp)
	addq	$32, -72(%rbp)
	movq	-88(%rbp), %rax
	movq	%rax, %rdi
	call	_ZNSt12_Vector_baseINSt7__cxx1112basic_stringIcSt11char_traitsIcESaIcEEESaIS5_EE19_M_get_Tp_allocatorEv
	movq	%rax, %rbx
	leaq	-96(%rbp), %rax
	movq	%rax, %rdi
	call	_ZNK9__gnu_cxx17__normal_iteratorIPNSt7__cxx1112basic_stringIcSt11char_traitsIcESaIcEEESt6vectorIS6_SaIS6_EEE4baseEv
	movq	(%rax), %rax
	movq	-72(%rbp), %rdx
	movq	-48(%rbp), %rsi
	movq	%rbx, %rcx
	movq	%rax, %rdi
	call	_ZNSt6vectorINSt7__cxx1112basic_stringIcSt11char_traitsIcESaIcEEESaIS5_EE11_S_relocateEPS5_S8_S8_RS6_
	movq	%rax, -72(%rbp)
	jmp	.L297
.L296:
	movq	-88(%rbp), %rax
	movq	%rax, %rdi
	call	_ZNSt12_Vector_baseINSt7__cxx1112basic_stringIcSt11char_traitsIcESaIcEEESaIS5_EE19_M_get_Tp_allocatorEv
	movq	%rax, %rbx
	leaq	-96(%rbp), %rax
	movq	%rax, %rdi
	call	_ZNK9__gnu_cxx17__normal_iteratorIPNSt7__cxx1112basic_stringIcSt11char_traitsIcESaIcEEESt6vectorIS6_SaIS6_EEE4baseEv
	movq	(%rax), %rsi
	movq	-32(%rbp), %rdx
	movq	-56(%rbp), %rax
	movq	%rbx, %rcx
	movq	%rax, %rdi
	call	_ZSt34__uninitialized_move_if_noexcept_aIPNSt7__cxx1112basic_stringIcSt11char_traitsIcESaIcEEES6_SaIS5_EET0_T_S9_S8_RT1_
	movq	%rax, -72(%rbp)
	addq	$32, -72(%rbp)
	movq	-88(%rbp), %rax
	movq	%rax, %rdi
	call	_ZNSt12_Vector_baseINSt7__cxx1112basic_stringIcSt11char_traitsIcESaIcEEESaIS5_EE19_M_get_Tp_allocatorEv
	movq	%rax, %rbx
	leaq	-96(%rbp), %rax
	movq	%rax, %rdi
	call	_ZNK9__gnu_cxx17__normal_iteratorIPNSt7__cxx1112basic_stringIcSt11char_traitsIcESaIcEEESt6vectorIS6_SaIS6_EEE4baseEv
	movq	(%rax), %rax
	movq	-72(%rbp), %rdx
	movq	-48(%rbp), %rsi
	movq	%rbx, %rcx
	movq	%rax, %rdi
	call	_ZSt34__uninitialized_move_if_noexcept_aIPNSt7__cxx1112basic_stringIcSt11char_traitsIcESaIcEEES6_SaIS5_EET0_T_S9_S8_RT1_
.LEHE37:
	movq	%rax, -72(%rbp)
.L297:
	call	_ZNSt6vectorINSt7__cxx1112basic_stringIcSt11char_traitsIcESaIcEEESaIS5_EE15_S_use_relocateEv
	xorl	$1, %eax
	testb	%al, %al
	je	.L298
	movq	-88(%rbp), %rax
	movq	%rax, %rdi
	call	_ZNSt12_Vector_baseINSt7__cxx1112basic_stringIcSt11char_traitsIcESaIcEEESaIS5_EE19_M_get_Tp_allocatorEv
	movq	%rax, %rdx
	movq	-48(%rbp), %rcx
	movq	-56(%rbp), %rax
	movq	%rcx, %rsi
	movq	%rax, %rdi
.LEHB38:
	call	_ZSt8_DestroyIPNSt7__cxx1112basic_stringIcSt11char_traitsIcESaIcEEES5_EvT_S7_RSaIT0_E
.L298:
	movq	-88(%rbp), %rax
	movq	-88(%rbp), %rdx
	movq	16(%rdx), %rdx
	subq	-56(%rbp), %rdx
	sarq	$5, %rdx
	movq	-56(%rbp), %rcx
	movq	%rcx, %rsi
	movq	%rax, %rdi
	call	_ZNSt12_Vector_baseINSt7__cxx1112basic_stringIcSt11char_traitsIcESaIcEEESaIS5_EE13_M_deallocateEPS5_m
.LEHE38:
	movq	-88(%rbp), %rax
	movq	-32(%rbp), %rdx
	movq	%rdx, (%rax)
	movq	-88(%rbp), %rax
	movq	-72(%rbp), %rdx
	movq	%rdx, 8(%rax)
	movq	-64(%rbp), %rax
	salq	$5, %rax
	movq	%rax, %rdx
	movq	-32(%rbp), %rax
	addq	%rax, %rdx
	movq	-88(%rbp), %rax
	movq	%rdx, 16(%rax)
	nop
	movq	-24(%rbp), %rax
	xorq	%fs:40, %rax
	je	.L303
	jmp	.L306
.L304:
	endbr64
	movq	%rax, %rdi
	call	__cxa_begin_catch@PLT
	cmpq	$0, -72(%rbp)
	jne	.L300
	movq	-40(%rbp), %rax
	salq	$5, %rax
	movq	%rax, %rdx
	movq	-32(%rbp), %rax
	addq	%rax, %rdx
	movq	-88(%rbp), %rax
	movq	%rdx, %rsi
	movq	%rax, %rdi
	call	_ZNSt16allocator_traitsISaINSt7__cxx1112basic_stringIcSt11char_traitsIcESaIcEEEEE7destroyIS5_EEvRS6_PT_
	jmp	.L301
.L300:
	movq	-88(%rbp), %rax
	movq	%rax, %rdi
	call	_ZNSt12_Vector_baseINSt7__cxx1112basic_stringIcSt11char_traitsIcESaIcEEESaIS5_EE19_M_get_Tp_allocatorEv
	movq	%rax, %rdx
	movq	-72(%rbp), %rcx
	movq	-32(%rbp), %rax
	movq	%rcx, %rsi
	movq	%rax, %rdi
.LEHB39:
	call	_ZSt8_DestroyIPNSt7__cxx1112basic_stringIcSt11char_traitsIcESaIcEEES5_EvT_S7_RSaIT0_E
.L301:
	movq	-88(%rbp), %rax
	movq	-64(%rbp), %rdx
	movq	-32(%rbp), %rcx
	movq	%rcx, %rsi
	movq	%rax, %rdi
	call	_ZNSt12_Vector_baseINSt7__cxx1112basic_stringIcSt11char_traitsIcESaIcEEESaIS5_EE13_M_deallocateEPS5_m
	call	__cxa_rethrow@PLT
.LEHE39:
.L305:
	endbr64
	movq	%rax, %rbx
	call	__cxa_end_catch@PLT
	movq	%rbx, %rax
	movq	%rax, %rdi
.LEHB40:
	call	_Unwind_Resume@PLT
.LEHE40:
.L306:
	call	__stack_chk_fail@PLT
.L303:
	addq	$104, %rsp
	popq	%rbx
	popq	%rbp
	.cfi_def_cfa 7, 8
	ret
	.cfi_endproc
.LFE14632:
	.section	.gcc_except_table
	.align 4
.LLSDA14632:
	.byte	0xff
	.byte	0x9b
	.uleb128 .LLSDATT14632-.LLSDATTD14632
.LLSDATTD14632:
	.byte	0x1
	.uleb128 .LLSDACSE14632-.LLSDACSB14632
.LLSDACSB14632:
	.uleb128 .LEHB36-.LFB14632
	.uleb128 .LEHE36-.LEHB36
	.uleb128 0
	.uleb128 0
	.uleb128 .LEHB37-.LFB14632
	.uleb128 .LEHE37-.LEHB37
	.uleb128 .L304-.LFB14632
	.uleb128 0x1
	.uleb128 .LEHB38-.LFB14632
	.uleb128 .LEHE38-.LEHB38
	.uleb128 0
	.uleb128 0
	.uleb128 .LEHB39-.LFB14632
	.uleb128 .LEHE39-.LEHB39
	.uleb128 .L305-.LFB14632
	.uleb128 0
	.uleb128 .LEHB40-.LFB14632
	.uleb128 .LEHE40-.LEHB40
	.uleb128 0
	.uleb128 0
.LLSDACSE14632:
	.byte	0x1
	.byte	0
	.align 4
	.long	0

.LLSDATT14632:
	.section	.text._ZNSt6vectorINSt7__cxx1112basic_stringIcSt11char_traitsIcESaIcEEESaIS5_EE17_M_realloc_insertIJRKS5_EEEvN9__gnu_cxx17__normal_iteratorIPS5_S7_EEDpOT_,"axG",@progbits,_ZNSt6vectorINSt7__cxx1112basic_stringIcSt11char_traitsIcESaIcEEESaIS5_EE17_M_realloc_insertIJRKS5_EEEvN9__gnu_cxx17__normal_iteratorIPS5_S7_EEDpOT_,comdat
	.size	_ZNSt6vectorINSt7__cxx1112basic_stringIcSt11char_traitsIcESaIcEEESaIS5_EE17_M_realloc_insertIJRKS5_EEEvN9__gnu_cxx17__normal_iteratorIPS5_S7_EEDpOT_, .-_ZNSt6vectorINSt7__cxx1112basic_stringIcSt11char_traitsIcESaIcEEESaIS5_EE17_M_realloc_insertIJRKS5_EEEvN9__gnu_cxx17__normal_iteratorIPS5_S7_EEDpOT_
	.section	.text._ZNSaI12BenchmarkersEC2Ev,"axG",@progbits,_ZNSaI12BenchmarkersEC5Ev,comdat
	.align 2
	.weak	_ZNSaI12BenchmarkersEC2Ev
	.type	_ZNSaI12BenchmarkersEC2Ev, @function
_ZNSaI12BenchmarkersEC2Ev:
.LFB14637:
	.cfi_startproc
	endbr64
	pushq	%rbp
	.cfi_def_cfa_offset 16
	.cfi_offset 6, -16
	movq	%rsp, %rbp
	.cfi_def_cfa_register 6
	subq	$16, %rsp
	movq	%rdi, -8(%rbp)
	movq	-8(%rbp), %rax
	movq	%rax, %rdi
	call	_ZN9__gnu_cxx13new_allocatorI12BenchmarkersEC2Ev
	nop
	leave
	.cfi_def_cfa 7, 8
	ret
	.cfi_endproc
.LFE14637:
	.size	_ZNSaI12BenchmarkersEC2Ev, .-_ZNSaI12BenchmarkersEC2Ev
	.weak	_ZNSaI12BenchmarkersEC1Ev
	.set	_ZNSaI12BenchmarkersEC1Ev,_ZNSaI12BenchmarkersEC2Ev
	.section	.text._ZNSaI12BenchmarkersED2Ev,"axG",@progbits,_ZNSaI12BenchmarkersED5Ev,comdat
	.align 2
	.weak	_ZNSaI12BenchmarkersED2Ev
	.type	_ZNSaI12BenchmarkersED2Ev, @function
_ZNSaI12BenchmarkersED2Ev:
.LFB14640:
	.cfi_startproc
	endbr64
	pushq	%rbp
	.cfi_def_cfa_offset 16
	.cfi_offset 6, -16
	movq	%rsp, %rbp
	.cfi_def_cfa_register 6
	subq	$16, %rsp
	movq	%rdi, -8(%rbp)
	movq	-8(%rbp), %rax
	movq	%rax, %rdi
	call	_ZN9__gnu_cxx13new_allocatorI12BenchmarkersED2Ev
	nop
	leave
	.cfi_def_cfa 7, 8
	ret
	.cfi_endproc
.LFE14640:
	.size	_ZNSaI12BenchmarkersED2Ev, .-_ZNSaI12BenchmarkersED2Ev
	.weak	_ZNSaI12BenchmarkersED1Ev
	.set	_ZNSaI12BenchmarkersED1Ev,_ZNSaI12BenchmarkersED2Ev
	.section	.text._ZSt15allocate_sharedI12BenchmarkersSaIS0_EJEESt10shared_ptrIT_ERKT0_DpOT1_,"axG",@progbits,_ZSt15allocate_sharedI12BenchmarkersSaIS0_EJEESt10shared_ptrIT_ERKT0_DpOT1_,comdat
	.weak	_ZSt15allocate_sharedI12BenchmarkersSaIS0_EJEESt10shared_ptrIT_ERKT0_DpOT1_
	.type	_ZSt15allocate_sharedI12BenchmarkersSaIS0_EJEESt10shared_ptrIT_ERKT0_DpOT1_, @function
_ZSt15allocate_sharedI12BenchmarkersSaIS0_EJEESt10shared_ptrIT_ERKT0_DpOT1_:
.LFB14642:
	.cfi_startproc
	endbr64
	pushq	%rbp
	.cfi_def_cfa_offset 16
	.cfi_offset 6, -16
	movq	%rsp, %rbp
	.cfi_def_cfa_register 6
	subq	$16, %rsp
	movq	%rdi, -8(%rbp)
	movq	%rsi, -16(%rbp)
	movq	-16(%rbp), %rdx
	movq	-8(%rbp), %rax
	movq	%rdx, %rsi
	movq	%rax, %rdi
	call	_ZNSt10shared_ptrI12BenchmarkersEC1ISaIS0_EJEEESt20_Sp_alloc_shared_tagIT_EDpOT0_
	movq	-8(%rbp), %rax
	leave
	.cfi_def_cfa 7, 8
	ret
	.cfi_endproc
.LFE14642:
	.size	_ZSt15allocate_sharedI12BenchmarkersSaIS0_EJEESt10shared_ptrIT_ERKT0_DpOT1_, .-_ZSt15allocate_sharedI12BenchmarkersSaIS0_EJEESt10shared_ptrIT_ERKT0_DpOT1_
	.section	.text._ZNSaI12RsaEncrytionEC2Ev,"axG",@progbits,_ZNSaI12RsaEncrytionEC5Ev,comdat
	.align 2
	.weak	_ZNSaI12RsaEncrytionEC2Ev
	.type	_ZNSaI12RsaEncrytionEC2Ev, @function
_ZNSaI12RsaEncrytionEC2Ev:
.LFB14648:
	.cfi_startproc
	endbr64
	pushq	%rbp
	.cfi_def_cfa_offset 16
	.cfi_offset 6, -16
	movq	%rsp, %rbp
	.cfi_def_cfa_register 6
	subq	$16, %rsp
	movq	%rdi, -8(%rbp)
	movq	-8(%rbp), %rax
	movq	%rax, %rdi
	call	_ZN9__gnu_cxx13new_allocatorI12RsaEncrytionEC2Ev
	nop
	leave
	.cfi_def_cfa 7, 8
	ret
	.cfi_endproc
.LFE14648:
	.size	_ZNSaI12RsaEncrytionEC2Ev, .-_ZNSaI12RsaEncrytionEC2Ev
	.weak	_ZNSaI12RsaEncrytionEC1Ev
	.set	_ZNSaI12RsaEncrytionEC1Ev,_ZNSaI12RsaEncrytionEC2Ev
	.section	.text._ZNSaI12RsaEncrytionED2Ev,"axG",@progbits,_ZNSaI12RsaEncrytionED5Ev,comdat
	.align 2
	.weak	_ZNSaI12RsaEncrytionED2Ev
	.type	_ZNSaI12RsaEncrytionED2Ev, @function
_ZNSaI12RsaEncrytionED2Ev:
.LFB14651:
	.cfi_startproc
	endbr64
	pushq	%rbp
	.cfi_def_cfa_offset 16
	.cfi_offset 6, -16
	movq	%rsp, %rbp
	.cfi_def_cfa_register 6
	subq	$16, %rsp
	movq	%rdi, -8(%rbp)
	movq	-8(%rbp), %rax
	movq	%rax, %rdi
	call	_ZN9__gnu_cxx13new_allocatorI12RsaEncrytionED2Ev
	nop
	leave
	.cfi_def_cfa 7, 8
	ret
	.cfi_endproc
.LFE14651:
	.size	_ZNSaI12RsaEncrytionED2Ev, .-_ZNSaI12RsaEncrytionED2Ev
	.weak	_ZNSaI12RsaEncrytionED1Ev
	.set	_ZNSaI12RsaEncrytionED1Ev,_ZNSaI12RsaEncrytionED2Ev
	.section	.text._ZSt15allocate_sharedI12RsaEncrytionSaIS0_EJEESt10shared_ptrIT_ERKT0_DpOT1_,"axG",@progbits,_ZSt15allocate_sharedI12RsaEncrytionSaIS0_EJEESt10shared_ptrIT_ERKT0_DpOT1_,comdat
	.weak	_ZSt15allocate_sharedI12RsaEncrytionSaIS0_EJEESt10shared_ptrIT_ERKT0_DpOT1_
	.type	_ZSt15allocate_sharedI12RsaEncrytionSaIS0_EJEESt10shared_ptrIT_ERKT0_DpOT1_, @function
_ZSt15allocate_sharedI12RsaEncrytionSaIS0_EJEESt10shared_ptrIT_ERKT0_DpOT1_:
.LFB14653:
	.cfi_startproc
	endbr64
	pushq	%rbp
	.cfi_def_cfa_offset 16
	.cfi_offset 6, -16
	movq	%rsp, %rbp
	.cfi_def_cfa_register 6
	subq	$16, %rsp
	movq	%rdi, -8(%rbp)
	movq	%rsi, -16(%rbp)
	movq	-16(%rbp), %rdx
	movq	-8(%rbp), %rax
	movq	%rdx, %rsi
	movq	%rax, %rdi
	call	_ZNSt10shared_ptrI12RsaEncrytionEC1ISaIS0_EJEEESt20_Sp_alloc_shared_tagIT_EDpOT0_
	movq	-8(%rbp), %rax
	leave
	.cfi_def_cfa 7, 8
	ret
	.cfi_endproc
.LFE14653:
	.size	_ZSt15allocate_sharedI12RsaEncrytionSaIS0_EJEESt10shared_ptrIT_ERKT0_DpOT1_, .-_ZSt15allocate_sharedI12RsaEncrytionSaIS0_EJEESt10shared_ptrIT_ERKT0_DpOT1_
	.section	.text._ZNKSt19__shared_ptr_accessI12RsaEncrytionLN9__gnu_cxx12_Lock_policyE2ELb0ELb0EE6_M_getEv,"axG",@progbits,_ZNKSt19__shared_ptr_accessI12RsaEncrytionLN9__gnu_cxx12_Lock_policyE2ELb0ELb0EE6_M_getEv,comdat
	.align 2
	.weak	_ZNKSt19__shared_ptr_accessI12RsaEncrytionLN9__gnu_cxx12_Lock_policyE2ELb0ELb0EE6_M_getEv
	.type	_ZNKSt19__shared_ptr_accessI12RsaEncrytionLN9__gnu_cxx12_Lock_policyE2ELb0ELb0EE6_M_getEv, @function
_ZNKSt19__shared_ptr_accessI12RsaEncrytionLN9__gnu_cxx12_Lock_policyE2ELb0ELb0EE6_M_getEv:
.LFB14658:
	.cfi_startproc
	endbr64
	pushq	%rbp
	.cfi_def_cfa_offset 16
	.cfi_offset 6, -16
	movq	%rsp, %rbp
	.cfi_def_cfa_register 6
	subq	$16, %rsp
	movq	%rdi, -8(%rbp)
	movq	-8(%rbp), %rax
	movq	%rax, %rdi
	call	_ZNKSt12__shared_ptrI12RsaEncrytionLN9__gnu_cxx12_Lock_policyE2EE3getEv
	leave
	.cfi_def_cfa 7, 8
	ret
	.cfi_endproc
.LFE14658:
	.size	_ZNKSt19__shared_ptr_accessI12RsaEncrytionLN9__gnu_cxx12_Lock_policyE2ELb0ELb0EE6_M_getEv, .-_ZNKSt19__shared_ptr_accessI12RsaEncrytionLN9__gnu_cxx12_Lock_policyE2ELb0ELb0EE6_M_getEv
	.section	.text._ZN9__gnu_cxx17__normal_iteratorIPNSt7__cxx1112basic_stringIcSt11char_traitsIcESaIcEEESt6vectorIS6_SaIS6_EEEC2ERKS7_,"axG",@progbits,_ZN9__gnu_cxx17__normal_iteratorIPNSt7__cxx1112basic_stringIcSt11char_traitsIcESaIcEEESt6vectorIS6_SaIS6_EEEC5ERKS7_,comdat
	.align 2
	.weak	_ZN9__gnu_cxx17__normal_iteratorIPNSt7__cxx1112basic_stringIcSt11char_traitsIcESaIcEEESt6vectorIS6_SaIS6_EEEC2ERKS7_
	.type	_ZN9__gnu_cxx17__normal_iteratorIPNSt7__cxx1112basic_stringIcSt11char_traitsIcESaIcEEESt6vectorIS6_SaIS6_EEEC2ERKS7_, @function
_ZN9__gnu_cxx17__normal_iteratorIPNSt7__cxx1112basic_stringIcSt11char_traitsIcESaIcEEESt6vectorIS6_SaIS6_EEEC2ERKS7_:
.LFB14660:
	.cfi_startproc
	endbr64
	pushq	%rbp
	.cfi_def_cfa_offset 16
	.cfi_offset 6, -16
	movq	%rsp, %rbp
	.cfi_def_cfa_register 6
	movq	%rdi, -8(%rbp)
	movq	%rsi, -16(%rbp)
	movq	-16(%rbp), %rax
	movq	(%rax), %rdx
	movq	-8(%rbp), %rax
	movq	%rdx, (%rax)
	nop
	popq	%rbp
	.cfi_def_cfa 7, 8
	ret
	.cfi_endproc
.LFE14660:
	.size	_ZN9__gnu_cxx17__normal_iteratorIPNSt7__cxx1112basic_stringIcSt11char_traitsIcESaIcEEESt6vectorIS6_SaIS6_EEEC2ERKS7_, .-_ZN9__gnu_cxx17__normal_iteratorIPNSt7__cxx1112basic_stringIcSt11char_traitsIcESaIcEEESt6vectorIS6_SaIS6_EEEC2ERKS7_
	.weak	_ZN9__gnu_cxx17__normal_iteratorIPNSt7__cxx1112basic_stringIcSt11char_traitsIcESaIcEEESt6vectorIS6_SaIS6_EEEC1ERKS7_
	.set	_ZN9__gnu_cxx17__normal_iteratorIPNSt7__cxx1112basic_stringIcSt11char_traitsIcESaIcEEESt6vectorIS6_SaIS6_EEEC1ERKS7_,_ZN9__gnu_cxx17__normal_iteratorIPNSt7__cxx1112basic_stringIcSt11char_traitsIcESaIcEEESt6vectorIS6_SaIS6_EEEC2ERKS7_
	.section	.text._ZNK9__gnu_cxx17__normal_iteratorIPNSt7__cxx1112basic_stringIcSt11char_traitsIcESaIcEEESt6vectorIS6_SaIS6_EEE4baseEv,"axG",@progbits,_ZNK9__gnu_cxx17__normal_iteratorIPNSt7__cxx1112basic_stringIcSt11char_traitsIcESaIcEEESt6vectorIS6_SaIS6_EEE4baseEv,comdat
	.align 2
	.weak	_ZNK9__gnu_cxx17__normal_iteratorIPNSt7__cxx1112basic_stringIcSt11char_traitsIcESaIcEEESt6vectorIS6_SaIS6_EEE4baseEv
	.type	_ZNK9__gnu_cxx17__normal_iteratorIPNSt7__cxx1112basic_stringIcSt11char_traitsIcESaIcEEESt6vectorIS6_SaIS6_EEE4baseEv, @function
_ZNK9__gnu_cxx17__normal_iteratorIPNSt7__cxx1112basic_stringIcSt11char_traitsIcESaIcEEESt6vectorIS6_SaIS6_EEE4baseEv:
.LFB14662:
	.cfi_startproc
	endbr64
	pushq	%rbp
	.cfi_def_cfa_offset 16
	.cfi_offset 6, -16
	movq	%rsp, %rbp
	.cfi_def_cfa_register 6
	movq	%rdi, -8(%rbp)
	movq	-8(%rbp), %rax
	popq	%rbp
	.cfi_def_cfa 7, 8
	ret
	.cfi_endproc
.LFE14662:
	.size	_ZNK9__gnu_cxx17__normal_iteratorIPNSt7__cxx1112basic_stringIcSt11char_traitsIcESaIcEEESt6vectorIS6_SaIS6_EEE4baseEv, .-_ZNK9__gnu_cxx17__normal_iteratorIPNSt7__cxx1112basic_stringIcSt11char_traitsIcESaIcEEESt6vectorIS6_SaIS6_EEE4baseEv
	.section	.text._ZNKSt19__shared_ptr_accessI12BenchmarkersLN9__gnu_cxx12_Lock_policyE2ELb0ELb0EE6_M_getEv,"axG",@progbits,_ZNKSt19__shared_ptr_accessI12BenchmarkersLN9__gnu_cxx12_Lock_policyE2ELb0ELb0EE6_M_getEv,comdat
	.align 2
	.weak	_ZNKSt19__shared_ptr_accessI12BenchmarkersLN9__gnu_cxx12_Lock_policyE2ELb0ELb0EE6_M_getEv
	.type	_ZNKSt19__shared_ptr_accessI12BenchmarkersLN9__gnu_cxx12_Lock_policyE2ELb0ELb0EE6_M_getEv, @function
_ZNKSt19__shared_ptr_accessI12BenchmarkersLN9__gnu_cxx12_Lock_policyE2ELb0ELb0EE6_M_getEv:
.LFB14666:
	.cfi_startproc
	endbr64
	pushq	%rbp
	.cfi_def_cfa_offset 16
	.cfi_offset 6, -16
	movq	%rsp, %rbp
	.cfi_def_cfa_register 6
	subq	$16, %rsp
	movq	%rdi, -8(%rbp)
	movq	-8(%rbp), %rax
	movq	%rax, %rdi
	call	_ZNKSt12__shared_ptrI12BenchmarkersLN9__gnu_cxx12_Lock_policyE2EE3getEv
	leave
	.cfi_def_cfa 7, 8
	ret
	.cfi_endproc
.LFE14666:
	.size	_ZNKSt19__shared_ptr_accessI12BenchmarkersLN9__gnu_cxx12_Lock_policyE2ELb0ELb0EE6_M_getEv, .-_ZNKSt19__shared_ptr_accessI12BenchmarkersLN9__gnu_cxx12_Lock_policyE2ELb0ELb0EE6_M_getEv
	.section	.text._ZNSt6chrono8durationIlSt5ratioILl1ELl1000EEEC2IlvEERKT_,"axG",@progbits,_ZNSt6chrono8durationIlSt5ratioILl1ELl1000EEEC5IlvEERKT_,comdat
	.align 2
	.weak	_ZNSt6chrono8durationIlSt5ratioILl1ELl1000EEEC2IlvEERKT_
	.type	_ZNSt6chrono8durationIlSt5ratioILl1ELl1000EEEC2IlvEERKT_, @function
_ZNSt6chrono8durationIlSt5ratioILl1ELl1000EEEC2IlvEERKT_:
.LFB14668:
	.cfi_startproc
	endbr64
	pushq	%rbp
	.cfi_def_cfa_offset 16
	.cfi_offset 6, -16
	movq	%rsp, %rbp
	.cfi_def_cfa_register 6
	movq	%rdi, -8(%rbp)
	movq	%rsi, -16(%rbp)
	movq	-16(%rbp), %rax
	movq	(%rax), %rdx
	movq	-8(%rbp), %rax
	movq	%rdx, (%rax)
	nop
	popq	%rbp
	.cfi_def_cfa 7, 8
	ret
	.cfi_endproc
.LFE14668:
	.size	_ZNSt6chrono8durationIlSt5ratioILl1ELl1000EEEC2IlvEERKT_, .-_ZNSt6chrono8durationIlSt5ratioILl1ELl1000EEEC2IlvEERKT_
	.weak	_ZNSt6chrono8durationIlSt5ratioILl1ELl1000EEEC1IlvEERKT_
	.set	_ZNSt6chrono8durationIlSt5ratioILl1ELl1000EEEC1IlvEERKT_,_ZNSt6chrono8durationIlSt5ratioILl1ELl1000EEEC2IlvEERKT_
	.section	.text._ZNSt6chrono20__duration_cast_implINS_8durationIlSt5ratioILl1ELl1000000000EEEES2_ILl1000000000ELl1EElLb0ELb1EE6__castIlS2_ILl1ELl1EEEES4_RKNS1_IT_T0_EE,"axG",@progbits,_ZNSt6chrono20__duration_cast_implINS_8durationIlSt5ratioILl1ELl1000000000EEEES2_ILl1000000000ELl1EElLb0ELb1EE6__castIlS2_ILl1ELl1EEEES4_RKNS1_IT_T0_EE,comdat
	.weak	_ZNSt6chrono20__duration_cast_implINS_8durationIlSt5ratioILl1ELl1000000000EEEES2_ILl1000000000ELl1EElLb0ELb1EE6__castIlS2_ILl1ELl1EEEES4_RKNS1_IT_T0_EE
	.type	_ZNSt6chrono20__duration_cast_implINS_8durationIlSt5ratioILl1ELl1000000000EEEES2_ILl1000000000ELl1EElLb0ELb1EE6__castIlS2_ILl1ELl1EEEES4_RKNS1_IT_T0_EE, @function
_ZNSt6chrono20__duration_cast_implINS_8durationIlSt5ratioILl1ELl1000000000EEEES2_ILl1000000000ELl1EElLb0ELb1EE6__castIlS2_ILl1ELl1EEEES4_RKNS1_IT_T0_EE:
.LFB14670:
	.cfi_startproc
	endbr64
	pushq	%rbp
	.cfi_def_cfa_offset 16
	.cfi_offset 6, -16
	movq	%rsp, %rbp
	.cfi_def_cfa_register 6
	subq	$48, %rsp
	movq	%rdi, -40(%rbp)
	movq	%fs:40, %rax
	movq	%rax, -8(%rbp)
	xorl	%eax, %eax
	movq	-40(%rbp), %rax
	movq	%rax, %rdi
	call	_ZNKSt6chrono8durationIlSt5ratioILl1ELl1EEE5countEv
	imulq	$1000000000, %rax, %rax
	movq	%rax, -24(%rbp)
	leaq	-24(%rbp), %rdx
	leaq	-16(%rbp), %rax
	movq	%rdx, %rsi
	movq	%rax, %rdi
	call	_ZNSt6chrono8durationIlSt5ratioILl1ELl1000000000EEEC1IlvEERKT_
	movq	-16(%rbp), %rax
	movq	-8(%rbp), %rcx
	xorq	%fs:40, %rcx
	je	.L325
	call	__stack_chk_fail@PLT
.L325:
	leave
	.cfi_def_cfa 7, 8
	ret
	.cfi_endproc
.LFE14670:
